

Microchip MPLAB XC8 Assembler V2.41 build 20230208172133 
                                                                                               Wed Jun 07 10:37:57 2023

Microchip MPLAB XC8 C Compiler v2.41 (Free license) build 20230208172133 Og1 
     1                           	processor	18F4520
     2                           	fnconf	rparam,??,?,0
     3                           	pagewidth 120
     4                           	opt	flic
     5                           	psect	smallconst,global,reloc=2,class=SMALLCONST,delta=1,noexec
     6                           	psect	cinit,global,reloc=2,class=CODE,delta=1
     7                           	psect	bssCOMRAM,global,class=COMRAM,space=1,delta=1,lowdata,noexec
     8                           	psect	bssBANK0,global,class=BANK0,space=1,delta=1,lowdata,noexec
     9                           	psect	bssBANK1,global,class=BANK1,space=1,delta=1,lowdata,noexec
    10                           	psect	cstackBANK0,global,class=BANK0,space=1,delta=1,lowdata,noexec
    11                           	psect	cstackCOMRAM,global,class=COMRAM,space=1,delta=1,lowdata,noexec
    12                           	psect	text0,global,reloc=2,class=CODE,delta=1
    13                           	psect	text1,global,reloc=2,class=CODE,delta=1,group=3
    14                           	psect	text2,global,reloc=2,class=CODE,delta=1
    15                           	psect	text3,global,reloc=2,class=CODE,delta=1
    16                           	psect	text4,global,reloc=2,class=CODE,delta=1
    17                           	psect	text5,global,reloc=2,class=CODE,delta=1
    18                           	psect	text6,global,reloc=2,class=CODE,delta=1,group=3
    19                           	psect	text7,global,reloc=2,class=CODE,delta=1,group=2
    20                           	psect	text8,global,reloc=2,class=CODE,delta=1,group=3
    21                           	psect	text9,global,reloc=2,class=CODE,delta=1,group=1
    22                           	psect	text10,global,reloc=2,class=CODE,delta=1,group=1
    23                           	psect	text11,global,reloc=2,class=CODE,delta=1,group=1
    24                           	psect	text12,global,reloc=2,class=CODE,delta=1,group=1
    25                           	psect	text13,global,reloc=2,class=CODE,delta=1,group=3
    26                           	psect	text14,global,reloc=2,class=CODE,delta=1,group=3
    27                           	psect	text15,global,reloc=2,class=CODE,delta=1
    28                           	psect	text16,global,reloc=2,class=CODE,delta=1,group=3
    29                           	psect	text17,global,reloc=2,class=CODE,delta=1,group=2
    30                           	psect	text18,global,reloc=2,class=CODE,delta=1,group=2
    31                           	psect	text19,global,reloc=2,class=CODE,delta=1
    32                           	psect	text20,global,reloc=2,class=CODE,delta=1
    33                           	psect	text21,global,reloc=2,class=CODE,delta=1
    34                           	psect	intcode,global,reloc=2,class=CODE,delta=1
    35                           	psect	intcode_body,global,reloc=2,class=CODE,delta=1
    36                           	psect	intsave_regs,global,class=BIGRAM,space=1,delta=1,noexec
    37                           	psect	rparam,global,class=COMRAM,space=1,delta=1,noexec
    38                           	psect	temp,global,ovrld,common,class=COMRAM,space=1,delta=1
    39                           	psect	idloc,global,abs,ovrld,class=IDLOC,space=5,delta=1,noexec
    40                           	psect	config,global,abs,ovrld,class=CONFIG,space=4,delta=1,noexec
    41   000000                     
    42                           ; Version 2.40
    43                           ; Generated 17/11/2021 GMT
    44                           ; 
    45                           ; Copyright © 2021, Microchip Technology Inc. and its subsidiaries ("Microchip")
    46                           ; All rights reserved.
    47                           ; 
    48                           ; This software is developed by Microchip Technology Inc. and its subsidiaries ("Microch
      +                          ip").
    49                           ; 
    50                           ; Redistribution and use in source and binary forms, with or without modification, are
    51                           ; permitted provided that the following conditions are met:
    52                           ; 
    53                           ;     1. Redistributions of source code must retain the above copyright notice, this lis
      +                          t of
    54                           ;        conditions and the following disclaimer.
    55                           ; 
    56                           ;     2. Redistributions in binary form must reproduce the above copyright notice, this 
      +                          list
    57                           ;        of conditions and the following disclaimer in the documentation and/or other
    58                           ;        materials provided with the distribution. Publication is not required when
    59                           ;        this file is used in an embedded application.
    60                           ; 
    61                           ;     3. Microchip's name may not be used to endorse or promote products derived from th
      +                          is
    62                           ;        software without specific prior written permission.
    63                           ; 
    64                           ; THIS SOFTWARE IS PROVIDED BY MICROCHIP "AS IS" AND ANY EXPRESS OR IMPLIED WARRANTIES,
    65                           ; INCLUDING, BUT NOT LIMITED TO, THE IMPLIED WARRANTIES OF MERCHANTABILITY AND FITNESS F
      +                          OR
    66                           ; PURPOSE ARE DISCLAIMED.  IN NO EVENT SHALL MICROCHIP BE LIABLE FOR ANY DIRECT, INDIREC
      +                          T,
    67                           ; INCIDENTAL, SPECIAL, EXEMPLARY, OR CONSEQUENTIAL DAMAGES (INCLUDING BUT NOT LIMITED TO
    68                           ; PROCUREMENT OF SUBSTITUTE GOODS OR SERVICES; LOSS OF USE, DATA OR PROFITS; OR BUSINESS
    69                           ; INTERRUPTION) HOWSOEVER CAUSED AND ON ANY THEORY OF LIABILITY, WHETHER IN CONTRACT, ST
      +                          RICT
    70                           ; LIABILITY, OR TORT (INCLUDING NEGLIGENCE OR OTHERWISE) ARISING IN ANY WAY OUT OF THE U
      +                          SE OF
    71                           ; THIS SOFTWARE, EVEN IF ADVISED OF THE POSSIBILITY OF SUCH DAMAGE.
    72                           ; 
    73                           ; 
    74                           ; Code-generator required, PIC18F4520 Definitions
    75                           ; 
    76                           ; SFR Addresses
    77   000000                     _PORTCbits	set	3970
    78   000000                     _PORTDbits	set	3971
    79   000000                     _PORTD	set	3971
    80   000000                     _PORTBbits	set	3969
    81   000000                     _TXSTAbits	set	4012
    82   000000                     _TXREG	set	4013
    83   000000                     _SPBRG	set	4015
    84   000000                     _TMR0L	set	4054
    85   000000                     _TMR0H	set	4055
    86   000000                     _INTCONbits	set	4082
    87   000000                     _INTCON3bits	set	4080
    88   000000                     _INTCON2bits	set	4081
    89   000000                     _TRISB	set	3987
    90   000000                     _TRISCbits	set	3988
    91   000000                     _TRISD	set	3989
    92   000000                     _RCSTAbits	set	4011
    93   000000                     _BAUDCONbits	set	4024
    94   000000                     _SPBRGH	set	4016
    95   000000                     _ADCON1	set	4033
    96   000000                     _RCONbits	set	4048
    97   000000                     _T0CONbits	set	4053
    98                           
    99                           	psect	smallconst
   100   000600                     __psmallconst:
   101                           	callstack 0
   102   000600  00                 	db	0
   103   000601                     STR_1:
   104   000601  49                 	db	73	;'I'
   105   000602  6E                 	db	110	;'n'
   106   000603  69                 	db	105	;'i'
   107   000604  74                 	db	116	;'t'
   108   000605  20                 	db	32
   109   000606  55                 	db	85	;'U'
   110   000607  41                 	db	65	;'A'
   111   000608  52                 	db	82	;'R'
   112   000609  54                 	db	84	;'T'
   113   00060A  21                 	db	33
   114   00060B  20                 	db	32
   115   00060C  0A                 	db	10
   116   00060D  00                 	db	0
   117   00060E                     STR_4:
   118   00060E  70                 	db	112	;'p'
   119   00060F  65                 	db	101	;'e'
   120   000610  72                 	db	114	;'r'
   121   000611  64                 	db	100	;'d'
   122   000612  65                 	db	101	;'e'
   123   000613  75                 	db	117	;'u'
   124   000614  20                 	db	32
   125   000615  00                 	db	0
   126   000616                     STR_5:
   127   000616  67                 	db	103	;'g'
   128   000617  61                 	db	97	;'a'
   129   000618  6E                 	db	110	;'n'
   130   000619  68                 	db	104	;'h'
   131   00061A  6F                 	db	111	;'o'
   132   00061B  75                 	db	117	;'u'
   133   00061C  20                 	db	32
   134   00061D  00                 	db	0
   135   00061E                     STR_2:
   136   00061E  25                 	db	37
   137   00061F  64                 	db	100	;'d'
   138   000620  20                 	db	32
   139   000621  00                 	db	0
   140   000622  00                 	db	0	; dummy byte at the end
   141   000000                     
   142                           ; #config settings
   143                           
   144                           	psect	cinit
   145   001E54                     __pcinit:
   146                           	callstack 0
   147   001E54                     start_initialization:
   148                           	callstack 0
   149   001E54                     __initialization:
   150                           	callstack 0
   151                           
   152                           ; Clear objects allocated to BANK1 (48 bytes)
   153   001E54  EE01  F000         	lfsr	0,__pbssBANK1
   154   001E58  0E30               	movlw	48
   155   001E5A                     clear_0:
   156   001E5A  6AEE               	clrf	postinc0,c
   157   001E5C  06E8               	decf	wreg,f,c
   158   001E5E  E1FD               	bnz	clear_0
   159                           
   160                           ; Clear objects allocated to BANK0 (43 bytes)
   161   001E60  EE00  F0CB         	lfsr	0,__pbssBANK0
   162   001E64  0E2B               	movlw	43
   163   001E66                     clear_1:
   164   001E66  6AEE               	clrf	postinc0,c
   165   001E68  06E8               	decf	wreg,f,c
   166   001E6A  E1FD               	bnz	clear_1
   167                           
   168                           ; Clear objects allocated to COMRAM (25 bytes)
   169   001E6C  EE00  F058         	lfsr	0,__pbssCOMRAM
   170   001E70  0E19               	movlw	25
   171   001E72                     clear_2:
   172   001E72  6AEE               	clrf	postinc0,c
   173   001E74  06E8               	decf	wreg,f,c
   174   001E76  E1FD               	bnz	clear_2
   175   001E78                     end_of_initialization:
   176                           	callstack 0
   177   001E78                     __end_of__initialization:
   178                           	callstack 0
   179   001E78  9071               	bcf	int$flags,0,c	;clear compiler interrupt flag (level 1)
   180   001E7A  9271               	bcf	int$flags,1,c	;clear compiler interrupt flag (level 2)
   181   001E7C  0E00               	movlw	low (__Lmediumconst shr (0+16))
   182   001E7E  6EF8               	movwf	tblptru,c
   183   001E80  0100               	movlb	0
   184   001E82  EF12  F003         	goto	_main	;jump to C main() function
   185                           
   186                           	psect	bssCOMRAM
   187   000058                     __pbssCOMRAM:
   188                           	callstack 0
   189   000058                     	ds	8
   190   000060                     _MILI_CNT:
   191                           	callstack 0
   192   000060                     	ds	8
   193   000068                     _width:
   194                           	callstack 0
   195   000068                     	ds	2
   196   00006A                     _prec:
   197                           	callstack 0
   198   00006A                     	ds	2
   199   00006C                     _flags:
   200                           	callstack 0
   201   00006C                     	ds	1
   202   00006D                     _seed:
   203                           	callstack 0
   204   00006D                     	ds	4
   205                           
   206                           	psect	bssBANK0
   207   0000CB                     __pbssBANK0:
   208                           	callstack 0
   209   0000CB                     _esperando_sequencia_facil:
   210                           	callstack 0
   211   0000CB                     	ds	2
   212   0000CD                     _pressedBTN4:
   213                           	callstack 0
   214   0000CD                     	ds	2
   215   0000CF                     _pressedBTN3:
   216                           	callstack 0
   217   0000CF                     	ds	2
   218   0000D1                     _pressedBTN2:
   219                           	callstack 0
   220   0000D1                     	ds	2
   221   0000D3                     _pressedBTN1:
   222                           	callstack 0
   223   0000D3                     	ds	2
   224   0000D5                     _game_iniciou:
   225                           	callstack 0
   226   0000D5                     	ds	1
   227   0000D6                     _dbuf:
   228                           	callstack 0
   229   0000D6                     	ds	32
   230                           
   231                           	psect	bssBANK1
   232   000100                     __pbssBANK1:
   233                           	callstack 0
   234   000100                     	ds	24
   235   000118                     	ds	24
   236                           
   237                           	psect	cstackBANK0
   238   000080                     __pcstackBANK0:
   239                           	callstack 0
   240   000080                     main@array:
   241                           	callstack 0
   242                           
   243                           ; 24 bytes @ 0x0
   244   000080                     	ds	24
   245   000098                     main@sequencia_usuario:
   246                           	callstack 0
   247                           
   248                           ; 24 bytes @ 0x18
   249   000098                     	ds	24
   250   0000B0                     main@possui_sequencia_facil:
   251                           	callstack 0
   252                           
   253                           ; 2 bytes @ 0x30
   254   0000B0                     	ds	2
   255   0000B2                     main@sequencia_facil_perdeu:
   256                           	callstack 0
   257                           
   258                           ; 2 bytes @ 0x32
   259   0000B2                     	ds	2
   260   0000B4                     main@r:
   261                           	callstack 0
   262                           
   263                           ; 2 bytes @ 0x34
   264   0000B4                     	ds	2
   265   0000B6                     main@i_863:
   266                           	callstack 0
   267                           
   268                           ; 1 bytes @ 0x36
   269   0000B6                     	ds	1
   270   0000B7                     main@i:
   271                           	callstack 0
   272                           
   273                           ; 2 bytes @ 0x37
   274   0000B7                     	ds	2
   275   0000B9                     main@sequencia_facil_finalizou:
   276                           	callstack 0
   277                           
   278                           ; 2 bytes @ 0x39
   279   0000B9                     	ds	2
   280   0000BB                     main@i_860:
   281                           	callstack 0
   282                           
   283                           ; 1 bytes @ 0x3B
   284   0000BB                     	ds	1
   285   0000BC                     main@i_862:
   286                           	callstack 0
   287                           
   288                           ; 1 bytes @ 0x3C
   289   0000BC                     	ds	1
   290   0000BD                     main@i_856:
   291                           	callstack 0
   292                           
   293                           ; 2 bytes @ 0x3D
   294   0000BD                     	ds	2
   295   0000BF                     main@i_852:
   296                           	callstack 0
   297                           
   298                           ; 2 bytes @ 0x3F
   299   0000BF                     	ds	2
   300   0000C1                     main@i_853:
   301                           	callstack 0
   302                           
   303                           ; 2 bytes @ 0x41
   304   0000C1                     	ds	2
   305   0000C3                     main@i_854:
   306                           	callstack 0
   307                           
   308                           ; 2 bytes @ 0x43
   309   0000C3                     	ds	2
   310   0000C5                     main@i_855:
   311                           	callstack 0
   312                           
   313                           ; 2 bytes @ 0x45
   314   0000C5                     	ds	2
   315   0000C7                     main@i_849:
   316                           	callstack 0
   317                           
   318                           ; 2 bytes @ 0x47
   319   0000C7                     	ds	2
   320   0000C9                     main@estagio:
   321                           	callstack 0
   322                           
   323                           ; 2 bytes @ 0x49
   324   0000C9                     	ds	2
   325                           
   326                           	psect	cstackCOMRAM
   327   000001                     __pcstackCOMRAM:
   328                           	callstack 0
   329   000001                     ??_interruption:
   330   000001                     
   331                           ; 1 bytes @ 0x0
   332   000001                     	ds	2
   333   000003                     interruption@i:
   334                           	callstack 0
   335                           
   336                           ; 2 bytes @ 0x2
   337   000003                     	ds	2
   338   000005                     interruption@i_729:
   339                           	callstack 0
   340                           
   341                           ; 2 bytes @ 0x4
   342   000005                     	ds	2
   343   000007                     interruption@i_730:
   344                           	callstack 0
   345                           
   346                           ; 2 bytes @ 0x6
   347   000007                     	ds	2
   348   000009                     interruption@i_731:
   349                           	callstack 0
   350                           
   351                           ; 2 bytes @ 0x8
   352   000009                     	ds	2
   353   00000B                     ??_reproduz_som_led:
   354   00000B                     ??_reproduz_vitoria:
   355   00000B                     ??_reproduz_derrota:
   356   00000B                     ?___awdiv:
   357                           	callstack 0
   358   00000B                     ?___awmod:
   359                           	callstack 0
   360   00000B                     ?___lmul:
   361                           	callstack 0
   362   00000B                     ?_millis:
   363                           	callstack 0
   364   00000B                     putch@byte:
   365                           	callstack 0
   366   00000B                     setLED@value:
   367                           	callstack 0
   368   00000B                     ___awdiv@dividend:
   369                           	callstack 0
   370   00000B                     ___awmod@dividend:
   371                           	callstack 0
   372   00000B                     ___lmul@multiplier:
   373                           	callstack 0
   374                           
   375                           ; 4 bytes @ 0xA
   376   00000B                     	ds	1
   377   00000C                     ??_setLED:
   378   00000C                     reproduz_vitoria@i:
   379                           	callstack 0
   380   00000C                     fputc@c:
   381                           	callstack 0
   382                           
   383                           ; 2 bytes @ 0xB
   384   00000C                     	ds	1
   385   00000D                     reproduz_som_led@pos:
   386                           	callstack 0
   387   00000D                     reproduz_derrota@i:
   388                           	callstack 0
   389   00000D                     ___awdiv@divisor:
   390                           	callstack 0
   391   00000D                     ___awmod@divisor:
   392                           	callstack 0
   393                           
   394                           ; 2 bytes @ 0xC
   395   00000D                     	ds	1
   396   00000E                     setLED@pos:
   397                           	callstack 0
   398   00000E                     reproduz_som_led@i:
   399                           	callstack 0
   400   00000E                     reproduz_vitoria@i_820:
   401                           	callstack 0
   402   00000E                     fputc@fp:
   403                           	callstack 0
   404                           
   405                           ; 2 bytes @ 0xD
   406   00000E                     	ds	1
   407   00000F                     ___awdiv@counter:
   408                           	callstack 0
   409   00000F                     ___awmod@counter:
   410                           	callstack 0
   411   00000F                     reproduz_derrota@i_825:
   412                           	callstack 0
   413   00000F                     ___lmul@multiplicand:
   414                           	callstack 0
   415                           
   416                           ; 4 bytes @ 0xE
   417   00000F                     	ds	1
   418   000010                     ??_fputc:
   419   000010                     ___awdiv@sign:
   420                           	callstack 0
   421   000010                     ___awmod@sign:
   422                           	callstack 0
   423   000010                     reproduz_som_led@i_736:
   424                           	callstack 0
   425   000010                     reproduz_vitoria@i_821:
   426                           	callstack 0
   427                           
   428                           ; 2 bytes @ 0xF
   429   000010                     	ds	1
   430   000011                     ?_abs:
   431                           	callstack 0
   432   000011                     reproduz_derrota@i_826:
   433                           	callstack 0
   434   000011                     ___awdiv@quotient:
   435                           	callstack 0
   436   000011                     abs@a:
   437                           	callstack 0
   438                           
   439                           ; 2 bytes @ 0x10
   440   000011                     	ds	1
   441   000012                     reproduz_som_led@i_737:
   442                           	callstack 0
   443   000012                     reproduz_vitoria@i_822:
   444                           	callstack 0
   445                           
   446                           ; 2 bytes @ 0x11
   447   000012                     	ds	1
   448   000013                     ??_abs:
   449   000013                     srand@s:
   450                           	callstack 0
   451   000013                     ___lmul@product:
   452                           	callstack 0
   453                           
   454                           ; 4 bytes @ 0x12
   455   000013                     	ds	1
   456   000014                     reproduz_som_led@i_738:
   457                           	callstack 0
   458                           
   459                           ; 2 bytes @ 0x13
   460   000014                     	ds	1
   461   000015                     ??_srand:
   462   000015                     fputs@s:
   463                           	callstack 0
   464                           
   465                           ; 2 bytes @ 0x14
   466   000015                     	ds	2
   467   000017                     ?_rand:
   468                           	callstack 0
   469   000017                     fputs@fp:
   470                           	callstack 0
   471                           
   472                           ; 2 bytes @ 0x16
   473   000017                     	ds	2
   474   000019                     ??_rand:
   475   000019                     fputs@c:
   476                           	callstack 0
   477                           
   478                           ; 1 bytes @ 0x18
   479   000019                     	ds	1
   480   00001A                     fputs@i:
   481                           	callstack 0
   482                           
   483                           ; 2 bytes @ 0x19
   484   00001A                     	ds	2
   485   00001C                     pad@fp:
   486                           	callstack 0
   487                           
   488                           ; 2 bytes @ 0x1B
   489   00001C                     	ds	2
   490   00001E                     pad@buf:
   491                           	callstack 0
   492                           
   493                           ; 2 bytes @ 0x1D
   494   00001E                     	ds	2
   495   000020                     pad@p:
   496                           	callstack 0
   497                           
   498                           ; 2 bytes @ 0x1F
   499   000020                     	ds	2
   500   000022                     ??_pad:
   501                           
   502                           ; 1 bytes @ 0x21
   503   000022                     	ds	1
   504   000023                     pad@i:
   505                           	callstack 0
   506                           
   507                           ; 2 bytes @ 0x22
   508   000023                     	ds	2
   509   000025                     pad@w:
   510                           	callstack 0
   511                           
   512                           ; 2 bytes @ 0x24
   513   000025                     	ds	2
   514   000027                     dtoa@fp:
   515                           	callstack 0
   516                           
   517                           ; 2 bytes @ 0x26
   518   000027                     	ds	2
   519   000029                     dtoa@d:
   520                           	callstack 0
   521                           
   522                           ; 2 bytes @ 0x28
   523   000029                     	ds	2
   524   00002B                     _dtoa$1373:
   525                           	callstack 0
   526                           
   527                           ; 2 bytes @ 0x2A
   528   00002B                     	ds	2
   529   00002D                     dtoa@p:
   530                           	callstack 0
   531                           
   532                           ; 2 bytes @ 0x2C
   533   00002D                     	ds	2
   534   00002F                     dtoa@w:
   535                           	callstack 0
   536                           
   537                           ; 2 bytes @ 0x2E
   538   00002F                     	ds	2
   539   000031                     dtoa@i:
   540                           	callstack 0
   541                           
   542                           ; 2 bytes @ 0x30
   543   000031                     	ds	2
   544   000033                     dtoa@s:
   545                           	callstack 0
   546                           
   547                           ; 1 bytes @ 0x32
   548   000033                     	ds	1
   549   000034                     vfpfcnvrt@fp:
   550                           	callstack 0
   551                           
   552                           ; 2 bytes @ 0x33
   553   000034                     	ds	2
   554   000036                     vfpfcnvrt@fmt:
   555                           	callstack 0
   556                           
   557                           ; 2 bytes @ 0x35
   558   000036                     	ds	2
   559   000038                     vfpfcnvrt@ap:
   560                           	callstack 0
   561                           
   562                           ; 2 bytes @ 0x37
   563   000038                     	ds	2
   564   00003A                     ??_vfpfcnvrt:
   565                           
   566                           ; 1 bytes @ 0x39
   567   00003A                     	ds	2
   568   00003C                     vfpfcnvrt@convarg:
   569                           	callstack 0
   570                           
   571                           ; 4 bytes @ 0x3B
   572   00003C                     	ds	4
   573   000040                     vfpfcnvrt@cp:
   574                           	callstack 0
   575                           
   576                           ; 2 bytes @ 0x3F
   577   000040                     	ds	2
   578   000042                     ?_vfprintf:
   579                           	callstack 0
   580   000042                     vfprintf@fp:
   581                           	callstack 0
   582                           
   583                           ; 2 bytes @ 0x41
   584   000042                     	ds	2
   585   000044                     vfprintf@fmt:
   586                           	callstack 0
   587                           
   588                           ; 2 bytes @ 0x43
   589   000044                     	ds	2
   590   000046                     vfprintf@ap:
   591                           	callstack 0
   592                           
   593                           ; 2 bytes @ 0x45
   594   000046                     	ds	2
   595   000048                     vfprintf@cfmt:
   596                           	callstack 0
   597                           
   598                           ; 2 bytes @ 0x47
   599   000048                     	ds	2
   600   00004A                     ?_printf:
   601                           	callstack 0
   602   00004A                     printf@fmt:
   603                           	callstack 0
   604                           
   605                           ; 2 bytes @ 0x49
   606   00004A                     	ds	4
   607   00004E                     printf@ap:
   608                           	callstack 0
   609                           
   610                           ; 2 bytes @ 0x4D
   611   00004E                     	ds	2
   612   000050                     ??_main:
   613                           
   614                           ; 1 bytes @ 0x4F
   615   000050                     	ds	8
   616                           
   617 ;;
   618 ;;Main: autosize = 0, tempsize = 8, incstack = 0, save=0
   619 ;;
   620 ;; *************** function _main *****************
   621 ;; Defined at:
   622 ;;		line 333 in file "main.c"
   623 ;; Parameters:    Size  Location     Type
   624 ;;		None
   625 ;; Auto vars:     Size  Location     Type
   626 ;;  i               1   60[BANK0 ] unsigned char 
   627 ;;  i               1   59[BANK0 ] unsigned char 
   628 ;;  i               2   61[BANK0 ] int 
   629 ;;  i               2   69[BANK0 ] int 
   630 ;;  i               2   67[BANK0 ] int 
   631 ;;  i               2   65[BANK0 ] int 
   632 ;;  i               2   63[BANK0 ] int 
   633 ;;  i               1   54[BANK0 ] unsigned char 
   634 ;;  i               2   71[BANK0 ] int 
   635 ;;  i               2   55[BANK0 ] int 
   636 ;;  sequencia_us   24   24[BANK0 ] int [12]
   637 ;;  array          24    0[BANK0 ] int [12]
   638 ;;  estagio         2   73[BANK0 ] int 
   639 ;;  sequencia_fa    2   57[BANK0 ] int 
   640 ;;  r               2   52[BANK0 ] int 
   641 ;;  sequencia_fa    2   50[BANK0 ] int 
   642 ;;  possui_seque    2   48[BANK0 ] int 
   643 ;;  possui_seque    2    0        int 
   644 ;;  possui_seque    2    0        int 
   645 ;; Return value:  Size  Location     Type
   646 ;;                  1    wreg      void 
   647 ;; Registers used:
   648 ;;		wreg, fsr1l, fsr1h, fsr2l, fsr2h, status,2, status,0, tblptrl, tblptrh, tblptru, prodl, prodh, cstack
   649 ;; Tracked objects:
   650 ;;		On entry : 0/0
   651 ;;		On exit  : 0/0
   652 ;;		Unchanged: 0/0
   653 ;; Data sizes:     COMRAM   BANK0   BANK1   BANK2   BANK3   BANK4   BANK5
   654 ;;      Params:         0       0       0       0       0       0       0
   655 ;;      Locals:         0      75       0       0       0       0       0
   656 ;;      Temps:          8       0       0       0       0       0       0
   657 ;;      Totals:         8      75       0       0       0       0       0
   658 ;;Total ram usage:       83 bytes
   659 ;; Hardware stack levels required when called: 9
   660 ;; This function calls:
   661 ;;		_init
   662 ;;		_initUART
   663 ;;		_millis
   664 ;;		_printf
   665 ;;		_rand
   666 ;;		_reproduz_derrota
   667 ;;		_reproduz_som_led
   668 ;;		_reproduz_vitoria
   669 ;;		_setLED
   670 ;;		_srand
   671 ;; This function is called by:
   672 ;;		Startup code after reset
   673 ;; This function uses a non-reentrant model
   674 ;;
   675                           
   676                           	psect	text0
   677   000624                     __ptext0:
   678                           	callstack 0
   679   000624                     _main:
   680                           	callstack 22
   681   000624                     
   682                           ;main.c: 334:     init();
   683   000624  EC0D  F00F         	call	_init	;wreg free
   684                           
   685                           ;main.c: 335:     initUART();
   686   000628  EC74  F00F         	call	_initUART	;wreg free
   687   00062C                     
   688                           ;main.c: 336:     printf("Init UART! \n");
   689   00062C  0E01               	movlw	low STR_1
   690   00062E  6E4A               	movwf	printf@fmt^0,c
   691   000630  0E06               	movlw	high STR_1
   692   000632  6E4B               	movwf	(printf@fmt+1)^0,c
   693   000634  EC43  F00F         	call	_printf	;wreg free
   694   000638                     
   695                           ;main.c: 337:     int array[12]= {};
   696   000638  EE20  F080         	lfsr	2,main@array
   697   00063C  0E17               	movlw	23
   698   00063E                     u1831:
   699   00063E  6ADE               	clrf	postinc2,c
   700   000640  06E8               	decf	wreg,f,c
   701   000642  E2FD               	bc	u1831
   702   000644                     
   703                           ;main.c: 340:     int estagio = 1;
   704   000644  0E00               	movlw	0
   705   000646  0100               	movlb	0	; () banked
   706   000648  6FCA               	movwf	(main@estagio+1)& (0+255),b
   707   00064A  0E01               	movlw	1
   708   00064C  6FC9               	movwf	main@estagio& (0+255),b
   709   00064E                     
   710                           ; BSR set to: 0
   711                           ;main.c: 342:     int possui_sequencia_facil = 0;
   712   00064E  0E00               	movlw	0
   713   000650  6FB1               	movwf	(main@possui_sequencia_facil+1)& (0+255),b
   714   000652  0E00               	movlw	0
   715   000654  6FB0               	movwf	main@possui_sequencia_facil& (0+255),b
   716   000656                     
   717                           ; BSR set to: 0
   718                           ;main.c: 343:     int sequencia_usuario[12] = {0};
   719   000656  EE20  F098         	lfsr	2,main@sequencia_usuario
   720   00065A  0E17               	movlw	23
   721   00065C                     u1841:
   722   00065C  6ADE               	clrf	postinc2,c
   723   00065E  06E8               	decf	wreg,f,c
   724   000660  E2FD               	bc	u1841
   725   000662                     
   726                           ; BSR set to: 0
   727                           ;main.c: 344:     int sequencia_facil_finalizou = 0;
   728   000662  0E00               	movlw	0
   729   000664  6FBA               	movwf	(main@sequencia_facil_finalizou+1)& (0+255),b
   730   000666  0E00               	movlw	0
   731   000668  6FB9               	movwf	main@sequencia_facil_finalizou& (0+255),b
   732   00066A                     
   733                           ; BSR set to: 0
   734                           ;main.c: 345:     int sequencia_facil_perdeu = 0;
   735   00066A  0E00               	movlw	0
   736   00066C  6FB3               	movwf	(main@sequencia_facil_perdeu+1)& (0+255),b
   737   00066E  0E00               	movlw	0
   738   000670  6FB2               	movwf	main@sequencia_facil_perdeu& (0+255),b
   739   000672                     l2493:
   740                           
   741                           ;main.c: 352:         if (game_iniciou == 0) {
   742   000672  0100               	movlb	0	; () banked
   743   000674  51D5               	movf	_game_iniciou& (0+255),w,b
   744   000676  A4D8               	btfss	status,2,c
   745   000678  EF40  F003         	goto	u1851
   746   00067C  EF42  F003         	goto	u1850
   747   000680                     u1851:
   748   000680  EF83  F003         	goto	l2507
   749   000684                     u1850:
   750   000684                     
   751                           ; BSR set to: 0
   752                           ;main.c: 353:             setLED(1, 1);
   753   000684  0E01               	movlw	1
   754   000686  6E0B               	movwf	setLED@value^0,c
   755   000688  0E01               	movlw	1
   756   00068A  ECBF  F00D         	call	_setLED
   757   00068E                     
   758                           ;main.c: 354:             if(pressedBTN1 == 1) {
   759   00068E  0100               	movlb	0	; () banked
   760   000690  05D3               	decf	_pressedBTN1& (0+255),w,b
   761   000692  11D4               	iorwf	(_pressedBTN1+1)& (0+255),w,b
   762   000694  A4D8               	btfss	status,2,c
   763   000696  EF4F  F003         	goto	u1861
   764   00069A  EF51  F003         	goto	u1860
   765   00069E                     u1861:
   766   00069E  EF39  F003         	goto	l2493
   767   0006A2                     u1860:
   768   0006A2                     
   769                           ; BSR set to: 0
   770                           ;main.c: 355:                 pressedBTN1 = 0;
   771   0006A2  0E00               	movlw	0
   772   0006A4  6FD4               	movwf	(_pressedBTN1+1)& (0+255),b
   773   0006A6  0E00               	movlw	0
   774   0006A8  6FD3               	movwf	_pressedBTN1& (0+255),b
   775   0006AA                     
   776                           ; BSR set to: 0
   777                           ;main.c: 356:                 setLED(1, 0);
   778   0006AA  0E00               	movlw	0
   779   0006AC  6E0B               	movwf	setLED@value^0,c
   780   0006AE  0E01               	movlw	1
   781   0006B0  ECBF  F00D         	call	_setLED
   782   0006B4                     
   783                           ;main.c: 357:                 game_iniciou = 1;
   784   0006B4  0E01               	movlw	1
   785   0006B6  0100               	movlb	0	; () banked
   786   0006B8  6FD5               	movwf	_game_iniciou& (0+255),b
   787                           
   788                           ;main.c: 359:                 srand(millis());
   789   0006BA  EC56  F00F         	call	_millis	;wreg free
   790   0006BE  C00B  F050         	movff	?_millis,??_main
   791   0006C2  C00C  F051         	movff	?_millis+1,??_main+1
   792   0006C6  C00D  F052         	movff	?_millis+2,??_main+2
   793   0006CA  C00E  F053         	movff	?_millis+3,??_main+3
   794   0006CE  C00F  F054         	movff	?_millis+4,??_main+4
   795   0006D2  C010  F055         	movff	?_millis+5,??_main+5
   796   0006D6  C011  F056         	movff	?_millis+6,??_main+6
   797   0006DA  C012  F057         	movff	?_millis+7,??_main+7
   798   0006DE  C050  F013         	movff	??_main,srand@s
   799   0006E2  C051  F014         	movff	??_main+1,srand@s+1
   800   0006E6  EC67  F00F         	call	_srand	;wreg free
   801   0006EA                     
   802                           ;main.c: 361:                 _delay((unsigned long)((1000)*(16000000/4000.0)));
   803   0006EA  0E15               	movlw	21
   804   0006EC  6E51               	movwf	(??_main+1)^0,c
   805   0006EE  0E4B               	movlw	75
   806   0006F0  6E50               	movwf	??_main^0,c
   807   0006F2  0EBE               	movlw	190
   808   0006F4                     u2257:
   809   0006F4  2EE8               	decfsz	wreg,f,c
   810   0006F6  D7FE               	bra	u2257
   811   0006F8  2E50               	decfsz	??_main^0,f,c
   812   0006FA  D7FC               	bra	u2257
   813   0006FC  2E51               	decfsz	(??_main+1)^0,f,c
   814   0006FE  D7FA               	bra	u2257
   815   000700  D000               	nop2	
   816   000702  EF39  F003         	goto	l2493
   817   000706                     l2507:
   818                           
   819                           ; BSR set to: 0
   820                           ;main.c: 366:         if (possui_sequencia_facil == 0) {
   821   000706  51B0               	movf	main@possui_sequencia_facil& (0+255),w,b
   822   000708  11B1               	iorwf	(main@possui_sequencia_facil+1)& (0+255),w,b
   823   00070A  A4D8               	btfss	status,2,c
   824   00070C  EF8A  F003         	goto	u1871
   825   000710  EF8C  F003         	goto	u1870
   826   000714                     u1871:
   827   000714  EFC2  F003         	goto	l2527
   828   000718                     u1870:
   829   000718                     
   830                           ; BSR set to: 0
   831                           ;main.c: 367:             for (int i = 0; i < 12; i++) {
   832   000718  0E00               	movlw	0
   833   00071A  6FB8               	movwf	(main@i+1)& (0+255),b
   834   00071C  0E00               	movlw	0
   835   00071E  6FB7               	movwf	main@i& (0+255),b
   836   000720                     l2511:
   837                           
   838                           ; BSR set to: 0
   839   000720  BFB8               	btfsc	(main@i+1)& (0+255),7,b
   840   000722  EF9C  F003         	goto	u1881
   841   000726  51B8               	movf	(main@i+1)& (0+255),w,b
   842   000728  E109               	bnz	u1880
   843   00072A  0E0C               	movlw	12
   844   00072C  5DB7               	subwf	main@i& (0+255),w,b
   845   00072E  A0D8               	btfss	status,0,c
   846   000730  EF9C  F003         	goto	u1881
   847   000734  EF9E  F003         	goto	u1880
   848   000738                     u1881:
   849   000738  EFA0  F003         	goto	l2515
   850   00073C                     u1880:
   851   00073C  EFBE  F003         	goto	l2525
   852   000740                     l2515:
   853                           
   854                           ; BSR set to: 0
   855                           ;main.c: 368:                 r = rand() % 4;
   856   000740  EC39  F00E         	call	_rand	;wreg free
   857   000744  0E03               	movlw	3
   858   000746  1417               	andwf	?_rand^0,w,c
   859   000748  0100               	movlb	0	; () banked
   860   00074A  6FB4               	movwf	main@r& (0+255),b
   861   00074C  6BB5               	clrf	(main@r+1)& (0+255),b
   862   00074E                     
   863                           ; BSR set to: 0
   864                           ;main.c: 369:                 r = r + 1;
   865   00074E  0E01               	movlw	1
   866   000750  25B4               	addwf	main@r& (0+255),w,b
   867   000752  6FB4               	movwf	main@r& (0+255),b
   868   000754  0E00               	movlw	0
   869   000756  21B5               	addwfc	(main@r+1)& (0+255),w,b
   870   000758  6FB5               	movwf	(main@r+1)& (0+255),b
   871   00075A                     
   872                           ; BSR set to: 0
   873                           ;main.c: 370:                 array[i] = r;
   874   00075A  90D8               	bcf	status,0,c
   875   00075C  35B7               	rlcf	main@i& (0+255),w,b
   876   00075E  6ED9               	movwf	fsr2l,c
   877   000760  35B8               	rlcf	(main@i+1)& (0+255),w,b
   878   000762  6EDA               	movwf	fsr2h,c
   879   000764  0E80               	movlw	low main@array
   880   000766  26D9               	addwf	fsr2l,f,c
   881   000768  0E00               	movlw	high main@array
   882   00076A  22DA               	addwfc	fsr2h,f,c
   883   00076C  C0B4  FFDE         	movff	main@r,postinc2
   884   000770  C0B5  FFDD         	movff	main@r+1,postdec2
   885   000774                     
   886                           ; BSR set to: 0
   887                           ;main.c: 371:             }
   888   000774  4BB7               	infsnz	main@i& (0+255),f,b
   889   000776  2BB8               	incf	(main@i+1)& (0+255),f,b
   890   000778  EF90  F003         	goto	l2511
   891   00077C                     l2525:
   892                           
   893                           ; BSR set to: 0
   894                           ;main.c: 372:             possui_sequencia_facil = 1;
   895   00077C  0E00               	movlw	0
   896   00077E  6FB1               	movwf	(main@possui_sequencia_facil+1)& (0+255),b
   897   000780  0E01               	movlw	1
   898   000782  6FB0               	movwf	main@possui_sequencia_facil& (0+255),b
   899   000784                     l2527:
   900                           
   901                           ; BSR set to: 0
   902                           ;main.c: 375:         if (esperando_sequencia_facil == 0) {
   903   000784  51CB               	movf	_esperando_sequencia_facil& (0+255),w,b
   904   000786  11CC               	iorwf	(_esperando_sequencia_facil+1)& (0+255),w,b
   905   000788  A4D8               	btfss	status,2,c
   906   00078A  EFC9  F003         	goto	u1891
   907   00078E  EFCB  F003         	goto	u1890
   908   000792                     u1891:
   909   000792  EF17  F005         	goto	l2571
   910   000796                     u1890:
   911   000796                     
   912                           ; BSR set to: 0
   913                           ;main.c: 376:             INTCONbits.RBIE = 0;
   914   000796  96F2               	bcf	242,3,c	;volatile
   915   000798                     
   916                           ; BSR set to: 0
   917                           ;main.c: 377:             for (int i = 0; i < estagio; i++) {
   918   000798  0E00               	movlw	0
   919   00079A  6FC8               	movwf	(main@i_849+1)& (0+255),b
   920   00079C  0E00               	movlw	0
   921   00079E  6FC7               	movwf	main@i_849& (0+255),b
   922   0007A0  EFF2  F004         	goto	l184
   923   0007A4                     l2533:
   924                           
   925                           ; BSR set to: 0
   926                           ;main.c: 378:                 printf("%d ", array[i]);
   927   0007A4  0E1E               	movlw	low STR_2
   928   0007A6  6E4A               	movwf	printf@fmt^0,c
   929   0007A8  0E06               	movlw	high STR_2
   930   0007AA  6E4B               	movwf	(printf@fmt+1)^0,c
   931   0007AC  90D8               	bcf	status,0,c
   932   0007AE  35C7               	rlcf	main@i_849& (0+255),w,b
   933   0007B0  6ED9               	movwf	fsr2l,c
   934   0007B2  35C8               	rlcf	(main@i_849+1)& (0+255),w,b
   935   0007B4  6EDA               	movwf	fsr2h,c
   936   0007B6  0E80               	movlw	low main@array
   937   0007B8  26D9               	addwf	fsr2l,f,c
   938   0007BA  0E00               	movlw	high main@array
   939   0007BC  22DA               	addwfc	fsr2h,f,c
   940   0007BE  CFDE F04C          	movff	postinc2,?_printf+2
   941   0007C2  CFDD F04D          	movff	postdec2,?_printf+3
   942   0007C6  EC43  F00F         	call	_printf	;wreg free
   943   0007CA                     
   944                           ;main.c: 380:                 if (estagio <= 4) {
   945   0007CA  0100               	movlb	0	; () banked
   946   0007CC  BFCA               	btfsc	(main@estagio+1)& (0+255),7,b
   947   0007CE  EFF4  F003         	goto	u1900
   948   0007D2  51CA               	movf	(main@estagio+1)& (0+255),w,b
   949   0007D4  E107               	bnz	u1901
   950   0007D6  0E05               	movlw	5
   951   0007D8  5DC9               	subwf	main@estagio& (0+255),w,b
   952   0007DA  B0D8               	btfsc	status,0,c
   953   0007DC  EFF2  F003         	goto	u1901
   954   0007E0  EFF4  F003         	goto	u1900
   955   0007E4                     u1901:
   956   0007E4  EF37  F004         	goto	l2543
   957   0007E8                     u1900:
   958   0007E8                     
   959                           ; BSR set to: 0
   960                           ;main.c: 381:                     setLED(array[i], 1);
   961   0007E8  0E01               	movlw	1
   962   0007EA  6E0B               	movwf	setLED@value^0,c
   963   0007EC  90D8               	bcf	status,0,c
   964   0007EE  35C7               	rlcf	main@i_849& (0+255),w,b
   965   0007F0  6ED9               	movwf	fsr2l,c
   966   0007F2  35C8               	rlcf	(main@i_849+1)& (0+255),w,b
   967   0007F4  6EDA               	movwf	fsr2h,c
   968   0007F6  0E80               	movlw	low main@array
   969   0007F8  26D9               	addwf	fsr2l,f,c
   970   0007FA  0E00               	movlw	high main@array
   971   0007FC  22DA               	addwfc	fsr2h,f,c
   972   0007FE  50DF               	movf	indf2,w,c
   973   000800  ECBF  F00D         	call	_setLED
   974                           
   975                           ;main.c: 382:                     reproduz_som_led(array[i]);
   976   000804  90D8               	bcf	status,0,c
   977   000806  0100               	movlb	0	; () banked
   978   000808  35C7               	rlcf	main@i_849& (0+255),w,b
   979   00080A  6ED9               	movwf	fsr2l,c
   980   00080C  35C8               	rlcf	(main@i_849+1)& (0+255),w,b
   981   00080E  6EDA               	movwf	fsr2h,c
   982   000810  0E80               	movlw	low main@array
   983   000812  26D9               	addwf	fsr2l,f,c
   984   000814  0E00               	movlw	high main@array
   985   000816  22DA               	addwfc	fsr2h,f,c
   986   000818  50DF               	movf	indf2,w,c
   987   00081A  ECCF  F00A         	call	_reproduz_som_led
   988   00081E                     
   989                           ;main.c: 383:                     _delay((unsigned long)((1000)*(16000000/4000.0)));
   990   00081E  0E15               	movlw	21
   991   000820  6E51               	movwf	(??_main+1)^0,c
   992   000822  0E4B               	movlw	75
   993   000824  6E50               	movwf	??_main^0,c
   994   000826  0EBE               	movlw	190
   995   000828                     u2267:
   996   000828  2EE8               	decfsz	wreg,f,c
   997   00082A  D7FE               	bra	u2267
   998   00082C  2E50               	decfsz	??_main^0,f,c
   999   00082E  D7FC               	bra	u2267
  1000   000830  2E51               	decfsz	(??_main+1)^0,f,c
  1001   000832  D7FA               	bra	u2267
  1002   000834  D000               	nop2	
  1003   000836                     
  1004                           ;main.c: 384:                     setLED(array[i], 0);
  1005   000836  0E00               	movlw	0
  1006   000838  6E0B               	movwf	setLED@value^0,c
  1007   00083A  90D8               	bcf	status,0,c
  1008   00083C  0100               	movlb	0	; () banked
  1009   00083E  35C7               	rlcf	main@i_849& (0+255),w,b
  1010   000840  6ED9               	movwf	fsr2l,c
  1011   000842  35C8               	rlcf	(main@i_849+1)& (0+255),w,b
  1012   000844  6EDA               	movwf	fsr2h,c
  1013   000846  0E80               	movlw	low main@array
  1014   000848  26D9               	addwf	fsr2l,f,c
  1015   00084A  0E00               	movlw	high main@array
  1016   00084C  22DA               	addwfc	fsr2h,f,c
  1017   00084E  50DF               	movf	indf2,w,c
  1018   000850  ECBF  F00D         	call	_setLED
  1019                           
  1020                           ;main.c: 385:                     _delay((unsigned long)((500)*(16000000/4000.0)));
  1021   000854  0E0B               	movlw	11
  1022   000856  6E51               	movwf	(??_main+1)^0,c
  1023   000858  0E26               	movlw	38
  1024   00085A  6E50               	movwf	??_main^0,c
  1025   00085C  0E5E               	movlw	94
  1026   00085E                     u2277:
  1027   00085E  2EE8               	decfsz	wreg,f,c
  1028   000860  D7FE               	bra	u2277
  1029   000862  2E50               	decfsz	??_main^0,f,c
  1030   000864  D7FC               	bra	u2277
  1031   000866  2E51               	decfsz	(??_main+1)^0,f,c
  1032   000868  D7FA               	bra	u2277
  1033                           
  1034                           ;main.c: 386:                 } else if (estagio > 4 && estagio <= 8) {
  1035   00086A  EFEF  F004         	goto	l2563
  1036   00086E                     l2543:
  1037                           
  1038                           ; BSR set to: 0
  1039   00086E  BFCA               	btfsc	(main@estagio+1)& (0+255),7,b
  1040   000870  EF43  F004         	goto	u1911
  1041   000874  51CA               	movf	(main@estagio+1)& (0+255),w,b
  1042   000876  E109               	bnz	u1910
  1043   000878  0E05               	movlw	5
  1044   00087A  5DC9               	subwf	main@estagio& (0+255),w,b
  1045   00087C  A0D8               	btfss	status,0,c
  1046   00087E  EF43  F004         	goto	u1911
  1047   000882  EF45  F004         	goto	u1910
  1048   000886                     u1911:
  1049   000886  EF97  F004         	goto	l2553
  1050   00088A                     u1910:
  1051   00088A                     
  1052                           ; BSR set to: 0
  1053   00088A  BFCA               	btfsc	(main@estagio+1)& (0+255),7,b
  1054   00088C  EF53  F004         	goto	u1920
  1055   000890  51CA               	movf	(main@estagio+1)& (0+255),w,b
  1056   000892  E107               	bnz	u1921
  1057   000894  0E09               	movlw	9
  1058   000896  5DC9               	subwf	main@estagio& (0+255),w,b
  1059   000898  B0D8               	btfsc	status,0,c
  1060   00089A  EF51  F004         	goto	u1921
  1061   00089E  EF53  F004         	goto	u1920
  1062   0008A2                     u1921:
  1063   0008A2  EF97  F004         	goto	l2553
  1064   0008A6                     u1920:
  1065   0008A6                     
  1066                           ; BSR set to: 0
  1067                           ;main.c: 387:                     setLED(array[i], 1);
  1068   0008A6  0E01               	movlw	1
  1069   0008A8  6E0B               	movwf	setLED@value^0,c
  1070   0008AA  90D8               	bcf	status,0,c
  1071   0008AC  35C7               	rlcf	main@i_849& (0+255),w,b
  1072   0008AE  6ED9               	movwf	fsr2l,c
  1073   0008B0  35C8               	rlcf	(main@i_849+1)& (0+255),w,b
  1074   0008B2  6EDA               	movwf	fsr2h,c
  1075   0008B4  0E80               	movlw	low main@array
  1076   0008B6  26D9               	addwf	fsr2l,f,c
  1077   0008B8  0E00               	movlw	high main@array
  1078   0008BA  22DA               	addwfc	fsr2h,f,c
  1079   0008BC  50DF               	movf	indf2,w,c
  1080   0008BE  ECBF  F00D         	call	_setLED
  1081                           
  1082                           ;main.c: 388:                     reproduz_som_led(array[i]);
  1083   0008C2  90D8               	bcf	status,0,c
  1084   0008C4  0100               	movlb	0	; () banked
  1085   0008C6  35C7               	rlcf	main@i_849& (0+255),w,b
  1086   0008C8  6ED9               	movwf	fsr2l,c
  1087   0008CA  35C8               	rlcf	(main@i_849+1)& (0+255),w,b
  1088   0008CC  6EDA               	movwf	fsr2h,c
  1089   0008CE  0E80               	movlw	low main@array
  1090   0008D0  26D9               	addwf	fsr2l,f,c
  1091   0008D2  0E00               	movlw	high main@array
  1092   0008D4  22DA               	addwfc	fsr2h,f,c
  1093   0008D6  50DF               	movf	indf2,w,c
  1094   0008D8  ECCF  F00A         	call	_reproduz_som_led
  1095   0008DC                     
  1096                           ;main.c: 389:                     _delay((unsigned long)((400)*(16000000/4000.0)));
  1097   0008DC  0E09               	movlw	9
  1098   0008DE  6E51               	movwf	(??_main+1)^0,c
  1099   0008E0  0E1E               	movlw	30
  1100   0008E2  6E50               	movwf	??_main^0,c
  1101   0008E4  0EE4               	movlw	228
  1102   0008E6                     u2287:
  1103   0008E6  2EE8               	decfsz	wreg,f,c
  1104   0008E8  D7FE               	bra	u2287
  1105   0008EA  2E50               	decfsz	??_main^0,f,c
  1106   0008EC  D7FC               	bra	u2287
  1107   0008EE  2E51               	decfsz	(??_main+1)^0,f,c
  1108   0008F0  D7FA               	bra	u2287
  1109   0008F2  D000               	nop2	
  1110   0008F4                     
  1111                           ;main.c: 390:                     setLED(array[i], 0);
  1112   0008F4  0E00               	movlw	0
  1113   0008F6  6E0B               	movwf	setLED@value^0,c
  1114   0008F8  90D8               	bcf	status,0,c
  1115   0008FA  0100               	movlb	0	; () banked
  1116   0008FC  35C7               	rlcf	main@i_849& (0+255),w,b
  1117   0008FE  6ED9               	movwf	fsr2l,c
  1118   000900  35C8               	rlcf	(main@i_849+1)& (0+255),w,b
  1119   000902  6EDA               	movwf	fsr2h,c
  1120   000904  0E80               	movlw	low main@array
  1121   000906  26D9               	addwf	fsr2l,f,c
  1122   000908  0E00               	movlw	high main@array
  1123   00090A  22DA               	addwfc	fsr2h,f,c
  1124   00090C  50DF               	movf	indf2,w,c
  1125   00090E  ECBF  F00D         	call	_setLED
  1126                           
  1127                           ;main.c: 391:                     _delay((unsigned long)((200)*(16000000/4000.0)));
  1128   000912  0E05               	movlw	5
  1129   000914  6E51               	movwf	(??_main+1)^0,c
  1130   000916  0E0F               	movlw	15
  1131   000918  6E50               	movwf	??_main^0,c
  1132   00091A  0EF1               	movlw	241
  1133   00091C                     u2297:
  1134   00091C  2EE8               	decfsz	wreg,f,c
  1135   00091E  D7FE               	bra	u2297
  1136   000920  2E50               	decfsz	??_main^0,f,c
  1137   000922  D7FC               	bra	u2297
  1138   000924  2E51               	decfsz	(??_main+1)^0,f,c
  1139   000926  D7FA               	bra	u2297
  1140   000928  F000               	nop	
  1141                           
  1142                           ;main.c: 392:                 } else if (estagio > 8 && estagio <= 12){
  1143   00092A  EFEF  F004         	goto	l2563
  1144   00092E                     l2553:
  1145                           
  1146                           ; BSR set to: 0
  1147   00092E  BFCA               	btfsc	(main@estagio+1)& (0+255),7,b
  1148   000930  EFA3  F004         	goto	u1931
  1149   000934  51CA               	movf	(main@estagio+1)& (0+255),w,b
  1150   000936  E109               	bnz	u1930
  1151   000938  0E09               	movlw	9
  1152   00093A  5DC9               	subwf	main@estagio& (0+255),w,b
  1153   00093C  A0D8               	btfss	status,0,c
  1154   00093E  EFA3  F004         	goto	u1931
  1155   000942  EFA5  F004         	goto	u1930
  1156   000946                     u1931:
  1157   000946  EFEF  F004         	goto	l2563
  1158   00094A                     u1930:
  1159   00094A                     
  1160                           ; BSR set to: 0
  1161   00094A  BFCA               	btfsc	(main@estagio+1)& (0+255),7,b
  1162   00094C  EFB3  F004         	goto	u1940
  1163   000950  51CA               	movf	(main@estagio+1)& (0+255),w,b
  1164   000952  E107               	bnz	u1941
  1165   000954  0E0D               	movlw	13
  1166   000956  5DC9               	subwf	main@estagio& (0+255),w,b
  1167   000958  B0D8               	btfsc	status,0,c
  1168   00095A  EFB1  F004         	goto	u1941
  1169   00095E  EFB3  F004         	goto	u1940
  1170   000962                     u1941:
  1171   000962  EFEF  F004         	goto	l2563
  1172   000966                     u1940:
  1173   000966                     
  1174                           ; BSR set to: 0
  1175                           ;main.c: 393:                     setLED(array[i], 1);
  1176   000966  0E01               	movlw	1
  1177   000968  6E0B               	movwf	setLED@value^0,c
  1178   00096A  90D8               	bcf	status,0,c
  1179   00096C  35C7               	rlcf	main@i_849& (0+255),w,b
  1180   00096E  6ED9               	movwf	fsr2l,c
  1181   000970  35C8               	rlcf	(main@i_849+1)& (0+255),w,b
  1182   000972  6EDA               	movwf	fsr2h,c
  1183   000974  0E80               	movlw	low main@array
  1184   000976  26D9               	addwf	fsr2l,f,c
  1185   000978  0E00               	movlw	high main@array
  1186   00097A  22DA               	addwfc	fsr2h,f,c
  1187   00097C  50DF               	movf	indf2,w,c
  1188   00097E  ECBF  F00D         	call	_setLED
  1189                           
  1190                           ;main.c: 394:                     reproduz_som_led(array[i]);
  1191   000982  90D8               	bcf	status,0,c
  1192   000984  0100               	movlb	0	; () banked
  1193   000986  35C7               	rlcf	main@i_849& (0+255),w,b
  1194   000988  6ED9               	movwf	fsr2l,c
  1195   00098A  35C8               	rlcf	(main@i_849+1)& (0+255),w,b
  1196   00098C  6EDA               	movwf	fsr2h,c
  1197   00098E  0E80               	movlw	low main@array
  1198   000990  26D9               	addwf	fsr2l,f,c
  1199   000992  0E00               	movlw	high main@array
  1200   000994  22DA               	addwfc	fsr2h,f,c
  1201   000996  50DF               	movf	indf2,w,c
  1202   000998  ECCF  F00A         	call	_reproduz_som_led
  1203   00099C                     
  1204                           ;main.c: 395:                     _delay((unsigned long)((150)*(16000000/4000.0)));
  1205   00099C  0E04               	movlw	4
  1206   00099E  6E51               	movwf	(??_main+1)^0,c
  1207   0009A0  0E0C               	movlw	12
  1208   0009A2  6E50               	movwf	??_main^0,c
  1209   0009A4  0E34               	movlw	52
  1210   0009A6                     u2307:
  1211   0009A6  2EE8               	decfsz	wreg,f,c
  1212   0009A8  D7FE               	bra	u2307
  1213   0009AA  2E50               	decfsz	??_main^0,f,c
  1214   0009AC  D7FC               	bra	u2307
  1215   0009AE  2E51               	decfsz	(??_main+1)^0,f,c
  1216   0009B0  D7FA               	bra	u2307
  1217   0009B2                     
  1218                           ;main.c: 396:                     setLED(array[i], 0);
  1219   0009B2  0E00               	movlw	0
  1220   0009B4  6E0B               	movwf	setLED@value^0,c
  1221   0009B6  90D8               	bcf	status,0,c
  1222   0009B8  0100               	movlb	0	; () banked
  1223   0009BA  35C7               	rlcf	main@i_849& (0+255),w,b
  1224   0009BC  6ED9               	movwf	fsr2l,c
  1225   0009BE  35C8               	rlcf	(main@i_849+1)& (0+255),w,b
  1226   0009C0  6EDA               	movwf	fsr2h,c
  1227   0009C2  0E80               	movlw	low main@array
  1228   0009C4  26D9               	addwf	fsr2l,f,c
  1229   0009C6  0E00               	movlw	high main@array
  1230   0009C8  22DA               	addwfc	fsr2h,f,c
  1231   0009CA  50DF               	movf	indf2,w,c
  1232   0009CC  ECBF  F00D         	call	_setLED
  1233                           
  1234                           ;main.c: 397:                     _delay((unsigned long)((25)*(16000000/4000.0)));
  1235   0009D0  0E82               	movlw	130
  1236   0009D2  6E50               	movwf	??_main^0,c
  1237   0009D4  0EDE               	movlw	222
  1238   0009D6                     u2317:
  1239   0009D6  2EE8               	decfsz	wreg,f,c
  1240   0009D8  D7FE               	bra	u2317
  1241   0009DA  2E50               	decfsz	??_main^0,f,c
  1242   0009DC  D7FC               	bra	u2317
  1243   0009DE                     l2563:
  1244                           
  1245                           ;main.c: 400:             }
  1246   0009DE  0100               	movlb	0	; () banked
  1247   0009E0  4BC7               	infsnz	main@i_849& (0+255),f,b
  1248   0009E2  2BC8               	incf	(main@i_849+1)& (0+255),f,b
  1249   0009E4                     l184:
  1250                           
  1251                           ; BSR set to: 0
  1252   0009E4  51C9               	movf	main@estagio& (0+255),w,b
  1253   0009E6  5DC7               	subwf	main@i_849& (0+255),w,b
  1254   0009E8  51C8               	movf	(main@i_849+1)& (0+255),w,b
  1255   0009EA  0A80               	xorlw	128
  1256   0009EC  6E50               	movwf	??_main^0,c
  1257   0009EE  51CA               	movf	(main@estagio+1)& (0+255),w,b
  1258   0009F0  0A80               	xorlw	128
  1259   0009F2  5850               	subwfb	??_main^0,w,c
  1260   0009F4  A0D8               	btfss	status,0,c
  1261   0009F6  EFFF  F004         	goto	u1951
  1262   0009FA  EF01  F005         	goto	u1950
  1263   0009FE                     u1951:
  1264   0009FE  EFD2  F003         	goto	l2533
  1265   000A02                     u1950:
  1266   000A02                     
  1267                           ; BSR set to: 0
  1268                           ;main.c: 401:             esperando_sequencia_facil = 1;
  1269   000A02  0E00               	movlw	0
  1270   000A04  6FCC               	movwf	(_esperando_sequencia_facil+1)& (0+255),b
  1271   000A06  0E01               	movlw	1
  1272   000A08  6FCB               	movwf	_esperando_sequencia_facil& (0+255),b
  1273                           
  1274                           ;main.c: 402:             pressedBTN1 = 0;
  1275   000A0A  0E00               	movlw	0
  1276   000A0C  6FD4               	movwf	(_pressedBTN1+1)& (0+255),b
  1277   000A0E  0E00               	movlw	0
  1278   000A10  6FD3               	movwf	_pressedBTN1& (0+255),b
  1279                           
  1280                           ;main.c: 403:             pressedBTN2 = 0;
  1281   000A12  0E00               	movlw	0
  1282   000A14  6FD2               	movwf	(_pressedBTN2+1)& (0+255),b
  1283   000A16  0E00               	movlw	0
  1284   000A18  6FD1               	movwf	_pressedBTN2& (0+255),b
  1285                           
  1286                           ;main.c: 404:             pressedBTN3 = 0;
  1287   000A1A  0E00               	movlw	0
  1288   000A1C  6FD0               	movwf	(_pressedBTN3+1)& (0+255),b
  1289   000A1E  0E00               	movlw	0
  1290   000A20  6FCF               	movwf	_pressedBTN3& (0+255),b
  1291                           
  1292                           ;main.c: 405:             pressedBTN4 = 0;
  1293   000A22  0E00               	movlw	0
  1294   000A24  6FCE               	movwf	(_pressedBTN4+1)& (0+255),b
  1295   000A26  0E00               	movlw	0
  1296   000A28  6FCD               	movwf	_pressedBTN4& (0+255),b
  1297   000A2A                     
  1298                           ; BSR set to: 0
  1299                           ;main.c: 406:             INTCONbits.RBIE = 1;
  1300   000A2A  86F2               	bsf	242,3,c	;volatile
  1301   000A2C                     
  1302                           ; BSR set to: 0
  1303                           ;main.c: 407:             INTCONbits.RBIF = 0;
  1304   000A2C  90F2               	bcf	242,0,c	;volatile
  1305   000A2E                     l2571:
  1306                           
  1307                           ; BSR set to: 0
  1308                           ;main.c: 410:         if (esperando_sequencia_facil == 1) {
  1309   000A2E  05CB               	decf	_esperando_sequencia_facil& (0+255),w,b
  1310   000A30  11CC               	iorwf	(_esperando_sequencia_facil+1)& (0+255),w,b
  1311   000A32  A4D8               	btfss	status,2,c
  1312   000A34  EF1E  F005         	goto	u1961
  1313   000A38  EF20  F005         	goto	u1960
  1314   000A3C                     u1961:
  1315   000A3C  EFFA  F007         	goto	l2715
  1316   000A40                     u1960:
  1317   000A40                     
  1318                           ; BSR set to: 0
  1319                           ;main.c: 411:             if (pressedBTN1 == 1) {
  1320   000A40  05D3               	decf	_pressedBTN1& (0+255),w,b
  1321   000A42  11D4               	iorwf	(_pressedBTN1+1)& (0+255),w,b
  1322   000A44  A4D8               	btfss	status,2,c
  1323   000A46  EF27  F005         	goto	u1971
  1324   000A4A  EF29  F005         	goto	u1970
  1325   000A4E                     u1971:
  1326   000A4E  EFA2  F005         	goto	l2591
  1327   000A52                     u1970:
  1328   000A52                     
  1329                           ; BSR set to: 0
  1330                           ;main.c: 412:                 pressedBTN1 = 0;
  1331   000A52  0E00               	movlw	0
  1332   000A54  6FD4               	movwf	(_pressedBTN1+1)& (0+255),b
  1333   000A56  0E00               	movlw	0
  1334   000A58  6FD3               	movwf	_pressedBTN1& (0+255),b
  1335                           
  1336                           ;main.c: 413:                 sequencia_facil_finalizou = 1;
  1337   000A5A  0E00               	movlw	0
  1338   000A5C  6FBA               	movwf	(main@sequencia_facil_finalizou+1)& (0+255),b
  1339   000A5E  0E01               	movlw	1
  1340   000A60  6FB9               	movwf	main@sequencia_facil_finalizou& (0+255),b
  1341                           
  1342                           ;main.c: 414:                 for (int i = 0; i < estagio; i++) {
  1343   000A62  0E00               	movlw	0
  1344   000A64  6FC0               	movwf	(main@i_852+1)& (0+255),b
  1345   000A66  0E00               	movlw	0
  1346   000A68  6FBF               	movwf	main@i_852& (0+255),b
  1347   000A6A  EF91  F005         	goto	l2589
  1348   000A6E                     l2577:
  1349                           
  1350                           ; BSR set to: 0
  1351                           ;main.c: 415:                     if (sequencia_usuario[i] == 0) {
  1352   000A6E  90D8               	bcf	status,0,c
  1353   000A70  35BF               	rlcf	main@i_852& (0+255),w,b
  1354   000A72  6ED9               	movwf	fsr2l,c
  1355   000A74  35C0               	rlcf	(main@i_852+1)& (0+255),w,b
  1356   000A76  6EDA               	movwf	fsr2h,c
  1357   000A78  0E98               	movlw	low main@sequencia_usuario
  1358   000A7A  26D9               	addwf	fsr2l,f,c
  1359   000A7C  0E00               	movlw	high main@sequencia_usuario
  1360   000A7E  22DA               	addwfc	fsr2h,f,c
  1361   000A80  50DE               	movf	postinc2,w,c
  1362   000A82  10DE               	iorwf	postinc2,w,c
  1363   000A84  A4D8               	btfss	status,2,c
  1364   000A86  EF47  F005         	goto	u1981
  1365   000A8A  EF49  F005         	goto	u1980
  1366   000A8E                     u1981:
  1367   000A8E  EF8F  F005         	goto	l2587
  1368   000A92                     u1980:
  1369   000A92                     
  1370                           ; BSR set to: 0
  1371                           ;main.c: 416:                         sequencia_usuario[i] = 1;
  1372   000A92  90D8               	bcf	status,0,c
  1373   000A94  35BF               	rlcf	main@i_852& (0+255),w,b
  1374   000A96  6ED9               	movwf	fsr2l,c
  1375   000A98  35C0               	rlcf	(main@i_852+1)& (0+255),w,b
  1376   000A9A  6EDA               	movwf	fsr2h,c
  1377   000A9C  0E98               	movlw	low main@sequencia_usuario
  1378   000A9E  26D9               	addwf	fsr2l,f,c
  1379   000AA0  0E00               	movlw	high main@sequencia_usuario
  1380   000AA2  22DA               	addwfc	fsr2h,f,c
  1381   000AA4  0E01               	movlw	1
  1382   000AA6  6EDE               	movwf	postinc2,c
  1383   000AA8  0E00               	movlw	0
  1384   000AAA  6EDD               	movwf	postdec2,c
  1385   000AAC                     
  1386                           ; BSR set to: 0
  1387                           ;main.c: 417:                         if (i < estagio-1 && array[i] == sequencia_usuario
      +                          [i]) {
  1388   000AAC  0EFF               	movlw	255
  1389   000AAE  25C9               	addwf	main@estagio& (0+255),w,b
  1390   000AB0  6E50               	movwf	??_main^0,c
  1391   000AB2  0EFF               	movlw	255
  1392   000AB4  21CA               	addwfc	(main@estagio+1)& (0+255),w,b
  1393   000AB6  6E51               	movwf	(??_main+1)^0,c
  1394   000AB8  5050               	movf	??_main^0,w,c
  1395   000ABA  5DBF               	subwf	main@i_852& (0+255),w,b
  1396   000ABC  51C0               	movf	(main@i_852+1)& (0+255),w,b
  1397   000ABE  0A80               	xorlw	128
  1398   000AC0  6E52               	movwf	(??_main+2)^0,c
  1399   000AC2  5051               	movf	(??_main+1)^0,w,c
  1400   000AC4  0A80               	xorlw	128
  1401   000AC6  5852               	subwfb	(??_main+2)^0,w,c
  1402   000AC8  B0D8               	btfsc	status,0,c
  1403   000ACA  EF69  F005         	goto	u1991
  1404   000ACE  EF6B  F005         	goto	u1990
  1405   000AD2                     u1991:
  1406   000AD2  EF1A  F007         	goto	l2645
  1407   000AD6                     u1990:
  1408   000AD6                     
  1409                           ; BSR set to: 0
  1410   000AD6  90D8               	bcf	status,0,c
  1411   000AD8  35BF               	rlcf	main@i_852& (0+255),w,b
  1412   000ADA  6ED9               	movwf	fsr2l,c
  1413   000ADC  35C0               	rlcf	(main@i_852+1)& (0+255),w,b
  1414   000ADE  6EDA               	movwf	fsr2h,c
  1415   000AE0  0E98               	movlw	low main@sequencia_usuario
  1416   000AE2  26D9               	addwf	fsr2l,f,c
  1417   000AE4  0E00               	movlw	high main@sequencia_usuario
  1418   000AE6  22DA               	addwfc	fsr2h,f,c
  1419   000AE8  90D8               	bcf	status,0,c
  1420   000AEA  35BF               	rlcf	main@i_852& (0+255),w,b
  1421   000AEC  6EE1               	movwf	fsr1l,c
  1422   000AEE  35C0               	rlcf	(main@i_852+1)& (0+255),w,b
  1423   000AF0  6EE2               	movwf	fsr1h,c
  1424   000AF2  0E80               	movlw	low main@array
  1425   000AF4  26E1               	addwf	fsr1l,f,c
  1426   000AF6  0E00               	movlw	high main@array
  1427   000AF8  22E2               	addwfc	fsr1h,f,c
  1428   000AFA  50DE               	movf	postinc2,w,c
  1429   000AFC  18E6               	xorwf	postinc1,w,c
  1430   000AFE  E107               	bnz	u2001
  1431   000B00  50DE               	movf	postinc2,w,c
  1432   000B02  18E6               	xorwf	postinc1,w,c
  1433   000B04  A4D8               	btfss	status,2,c
  1434   000B06  EF87  F005         	goto	u2001
  1435   000B0A  EF89  F005         	goto	u2000
  1436   000B0E                     u2001:
  1437   000B0E  EF1A  F007         	goto	l2645
  1438   000B12                     u2000:
  1439   000B12                     l2585:
  1440                           
  1441                           ; BSR set to: 0
  1442                           ;main.c: 418:                             sequencia_facil_finalizou = 0;
  1443   000B12  0E00               	movlw	0
  1444   000B14  6FBA               	movwf	(main@sequencia_facil_finalizou+1)& (0+255),b
  1445   000B16  0E00               	movlw	0
  1446   000B18  6FB9               	movwf	main@sequencia_facil_finalizou& (0+255),b
  1447   000B1A  EF1A  F007         	goto	l2645
  1448   000B1E                     l2587:
  1449                           
  1450                           ; BSR set to: 0
  1451                           ;main.c: 422:                 }
  1452   000B1E  4BBF               	infsnz	main@i_852& (0+255),f,b
  1453   000B20  2BC0               	incf	(main@i_852+1)& (0+255),f,b
  1454   000B22                     l2589:
  1455                           
  1456                           ; BSR set to: 0
  1457   000B22  51C9               	movf	main@estagio& (0+255),w,b
  1458   000B24  5DBF               	subwf	main@i_852& (0+255),w,b
  1459   000B26  51C0               	movf	(main@i_852+1)& (0+255),w,b
  1460   000B28  0A80               	xorlw	128
  1461   000B2A  6E50               	movwf	??_main^0,c
  1462   000B2C  51CA               	movf	(main@estagio+1)& (0+255),w,b
  1463   000B2E  0A80               	xorlw	128
  1464   000B30  5850               	subwfb	??_main^0,w,c
  1465   000B32  A0D8               	btfss	status,0,c
  1466   000B34  EF9E  F005         	goto	u2011
  1467   000B38  EFA0  F005         	goto	u2010
  1468   000B3C                     u2011:
  1469   000B3C  EF37  F005         	goto	l2577
  1470   000B40                     u2010:
  1471   000B40  EF1A  F007         	goto	l2645
  1472   000B44                     l2591:
  1473                           
  1474                           ; BSR set to: 0
  1475   000B44  05D1               	decf	_pressedBTN2& (0+255),w,b
  1476   000B46  11D2               	iorwf	(_pressedBTN2+1)& (0+255),w,b
  1477   000B48  A4D8               	btfss	status,2,c
  1478   000B4A  EFA9  F005         	goto	u2021
  1479   000B4E  EFAB  F005         	goto	u2020
  1480   000B52                     u2021:
  1481   000B52  EF20  F006         	goto	l2609
  1482   000B56                     u2020:
  1483   000B56                     
  1484                           ; BSR set to: 0
  1485                           ;main.c: 425:                 pressedBTN2 = 0;
  1486   000B56  0E00               	movlw	0
  1487   000B58  6FD2               	movwf	(_pressedBTN2+1)& (0+255),b
  1488   000B5A  0E00               	movlw	0
  1489   000B5C  6FD1               	movwf	_pressedBTN2& (0+255),b
  1490                           
  1491                           ;main.c: 426:                 sequencia_facil_finalizou = 1;
  1492   000B5E  0E00               	movlw	0
  1493   000B60  6FBA               	movwf	(main@sequencia_facil_finalizou+1)& (0+255),b
  1494   000B62  0E01               	movlw	1
  1495   000B64  6FB9               	movwf	main@sequencia_facil_finalizou& (0+255),b
  1496                           
  1497                           ;main.c: 427:                 for (int i = 0; i < estagio; i++) {
  1498   000B66  0E00               	movlw	0
  1499   000B68  6FC2               	movwf	(main@i_853+1)& (0+255),b
  1500   000B6A  0E00               	movlw	0
  1501   000B6C  6FC1               	movwf	main@i_853& (0+255),b
  1502   000B6E  EF0F  F006         	goto	l2607
  1503   000B72                     l2595:
  1504                           
  1505                           ; BSR set to: 0
  1506                           ;main.c: 428:                     if (sequencia_usuario[i] == 0) {
  1507   000B72  90D8               	bcf	status,0,c
  1508   000B74  35C1               	rlcf	main@i_853& (0+255),w,b
  1509   000B76  6ED9               	movwf	fsr2l,c
  1510   000B78  35C2               	rlcf	(main@i_853+1)& (0+255),w,b
  1511   000B7A  6EDA               	movwf	fsr2h,c
  1512   000B7C  0E98               	movlw	low main@sequencia_usuario
  1513   000B7E  26D9               	addwf	fsr2l,f,c
  1514   000B80  0E00               	movlw	high main@sequencia_usuario
  1515   000B82  22DA               	addwfc	fsr2h,f,c
  1516   000B84  50DE               	movf	postinc2,w,c
  1517   000B86  10DE               	iorwf	postinc2,w,c
  1518   000B88  A4D8               	btfss	status,2,c
  1519   000B8A  EFC9  F005         	goto	u2031
  1520   000B8E  EFCB  F005         	goto	u2030
  1521   000B92                     u2031:
  1522   000B92  EF0D  F006         	goto	l2605
  1523   000B96                     u2030:
  1524   000B96                     
  1525                           ; BSR set to: 0
  1526                           ;main.c: 429:                         sequencia_usuario[i] = 2;
  1527   000B96  90D8               	bcf	status,0,c
  1528   000B98  35C1               	rlcf	main@i_853& (0+255),w,b
  1529   000B9A  6ED9               	movwf	fsr2l,c
  1530   000B9C  35C2               	rlcf	(main@i_853+1)& (0+255),w,b
  1531   000B9E  6EDA               	movwf	fsr2h,c
  1532   000BA0  0E98               	movlw	low main@sequencia_usuario
  1533   000BA2  26D9               	addwf	fsr2l,f,c
  1534   000BA4  0E00               	movlw	high main@sequencia_usuario
  1535   000BA6  22DA               	addwfc	fsr2h,f,c
  1536   000BA8  0E02               	movlw	2
  1537   000BAA  6EDE               	movwf	postinc2,c
  1538   000BAC  0E00               	movlw	0
  1539   000BAE  6EDD               	movwf	postdec2,c
  1540   000BB0                     
  1541                           ; BSR set to: 0
  1542                           ;main.c: 430:                         if (i < estagio-1 && array[i] == sequencia_usuario
      +                          [i]) {
  1543   000BB0  0EFF               	movlw	255
  1544   000BB2  25C9               	addwf	main@estagio& (0+255),w,b
  1545   000BB4  6E50               	movwf	??_main^0,c
  1546   000BB6  0EFF               	movlw	255
  1547   000BB8  21CA               	addwfc	(main@estagio+1)& (0+255),w,b
  1548   000BBA  6E51               	movwf	(??_main+1)^0,c
  1549   000BBC  5050               	movf	??_main^0,w,c
  1550   000BBE  5DC1               	subwf	main@i_853& (0+255),w,b
  1551   000BC0  51C2               	movf	(main@i_853+1)& (0+255),w,b
  1552   000BC2  0A80               	xorlw	128
  1553   000BC4  6E52               	movwf	(??_main+2)^0,c
  1554   000BC6  5051               	movf	(??_main+1)^0,w,c
  1555   000BC8  0A80               	xorlw	128
  1556   000BCA  5852               	subwfb	(??_main+2)^0,w,c
  1557   000BCC  B0D8               	btfsc	status,0,c
  1558   000BCE  EFEB  F005         	goto	u2041
  1559   000BD2  EFED  F005         	goto	u2040
  1560   000BD6                     u2041:
  1561   000BD6  EF1A  F007         	goto	l2645
  1562   000BDA                     u2040:
  1563   000BDA                     
  1564                           ; BSR set to: 0
  1565   000BDA  90D8               	bcf	status,0,c
  1566   000BDC  35C1               	rlcf	main@i_853& (0+255),w,b
  1567   000BDE  6ED9               	movwf	fsr2l,c
  1568   000BE0  35C2               	rlcf	(main@i_853+1)& (0+255),w,b
  1569   000BE2  6EDA               	movwf	fsr2h,c
  1570   000BE4  0E98               	movlw	low main@sequencia_usuario
  1571   000BE6  26D9               	addwf	fsr2l,f,c
  1572   000BE8  0E00               	movlw	high main@sequencia_usuario
  1573   000BEA  22DA               	addwfc	fsr2h,f,c
  1574   000BEC  90D8               	bcf	status,0,c
  1575   000BEE  35C1               	rlcf	main@i_853& (0+255),w,b
  1576   000BF0  6EE1               	movwf	fsr1l,c
  1577   000BF2  35C2               	rlcf	(main@i_853+1)& (0+255),w,b
  1578   000BF4  6EE2               	movwf	fsr1h,c
  1579   000BF6  0E80               	movlw	low main@array
  1580   000BF8  26E1               	addwf	fsr1l,f,c
  1581   000BFA  0E00               	movlw	high main@array
  1582   000BFC  22E2               	addwfc	fsr1h,f,c
  1583   000BFE  50DE               	movf	postinc2,w,c
  1584   000C00  18E6               	xorwf	postinc1,w,c
  1585   000C02  E107               	bnz	u2051
  1586   000C04  50DE               	movf	postinc2,w,c
  1587   000C06  18E6               	xorwf	postinc1,w,c
  1588   000C08  A4D8               	btfss	status,2,c
  1589   000C0A  EF09  F006         	goto	u2051
  1590   000C0E  EF0B  F006         	goto	u2050
  1591   000C12                     u2051:
  1592   000C12  EF1A  F007         	goto	l2645
  1593   000C16                     u2050:
  1594   000C16  EF89  F005         	goto	l2585
  1595   000C1A                     l2605:
  1596                           
  1597                           ; BSR set to: 0
  1598                           ;main.c: 435:                 }
  1599   000C1A  4BC1               	infsnz	main@i_853& (0+255),f,b
  1600   000C1C  2BC2               	incf	(main@i_853+1)& (0+255),f,b
  1601   000C1E                     l2607:
  1602                           
  1603                           ; BSR set to: 0
  1604   000C1E  51C9               	movf	main@estagio& (0+255),w,b
  1605   000C20  5DC1               	subwf	main@i_853& (0+255),w,b
  1606   000C22  51C2               	movf	(main@i_853+1)& (0+255),w,b
  1607   000C24  0A80               	xorlw	128
  1608   000C26  6E50               	movwf	??_main^0,c
  1609   000C28  51CA               	movf	(main@estagio+1)& (0+255),w,b
  1610   000C2A  0A80               	xorlw	128
  1611   000C2C  5850               	subwfb	??_main^0,w,c
  1612   000C2E  A0D8               	btfss	status,0,c
  1613   000C30  EF1C  F006         	goto	u2061
  1614   000C34  EF1E  F006         	goto	u2060
  1615   000C38                     u2061:
  1616   000C38  EFB9  F005         	goto	l2595
  1617   000C3C                     u2060:
  1618   000C3C  EF1A  F007         	goto	l2645
  1619   000C40                     l2609:
  1620                           
  1621                           ; BSR set to: 0
  1622   000C40  05CF               	decf	_pressedBTN3& (0+255),w,b
  1623   000C42  11D0               	iorwf	(_pressedBTN3+1)& (0+255),w,b
  1624   000C44  A4D8               	btfss	status,2,c
  1625   000C46  EF27  F006         	goto	u2071
  1626   000C4A  EF29  F006         	goto	u2070
  1627   000C4E                     u2071:
  1628   000C4E  EF9E  F006         	goto	l2627
  1629   000C52                     u2070:
  1630   000C52                     
  1631                           ; BSR set to: 0
  1632                           ;main.c: 438:                 pressedBTN3 = 0;
  1633   000C52  0E00               	movlw	0
  1634   000C54  6FD0               	movwf	(_pressedBTN3+1)& (0+255),b
  1635   000C56  0E00               	movlw	0
  1636   000C58  6FCF               	movwf	_pressedBTN3& (0+255),b
  1637                           
  1638                           ;main.c: 439:                 sequencia_facil_finalizou = 1;
  1639   000C5A  0E00               	movlw	0
  1640   000C5C  6FBA               	movwf	(main@sequencia_facil_finalizou+1)& (0+255),b
  1641   000C5E  0E01               	movlw	1
  1642   000C60  6FB9               	movwf	main@sequencia_facil_finalizou& (0+255),b
  1643                           
  1644                           ;main.c: 440:                 for (int i = 0; i < estagio; i++) {
  1645   000C62  0E00               	movlw	0
  1646   000C64  6FC4               	movwf	(main@i_854+1)& (0+255),b
  1647   000C66  0E00               	movlw	0
  1648   000C68  6FC3               	movwf	main@i_854& (0+255),b
  1649   000C6A  EF8D  F006         	goto	l2625
  1650   000C6E                     l2613:
  1651                           
  1652                           ; BSR set to: 0
  1653                           ;main.c: 441:                     if (sequencia_usuario[i] == 0) {
  1654   000C6E  90D8               	bcf	status,0,c
  1655   000C70  35C3               	rlcf	main@i_854& (0+255),w,b
  1656   000C72  6ED9               	movwf	fsr2l,c
  1657   000C74  35C4               	rlcf	(main@i_854+1)& (0+255),w,b
  1658   000C76  6EDA               	movwf	fsr2h,c
  1659   000C78  0E98               	movlw	low main@sequencia_usuario
  1660   000C7A  26D9               	addwf	fsr2l,f,c
  1661   000C7C  0E00               	movlw	high main@sequencia_usuario
  1662   000C7E  22DA               	addwfc	fsr2h,f,c
  1663   000C80  50DE               	movf	postinc2,w,c
  1664   000C82  10DE               	iorwf	postinc2,w,c
  1665   000C84  A4D8               	btfss	status,2,c
  1666   000C86  EF47  F006         	goto	u2081
  1667   000C8A  EF49  F006         	goto	u2080
  1668   000C8E                     u2081:
  1669   000C8E  EF8B  F006         	goto	l2623
  1670   000C92                     u2080:
  1671   000C92                     
  1672                           ; BSR set to: 0
  1673                           ;main.c: 442:                         sequencia_usuario[i] = 3;
  1674   000C92  90D8               	bcf	status,0,c
  1675   000C94  35C3               	rlcf	main@i_854& (0+255),w,b
  1676   000C96  6ED9               	movwf	fsr2l,c
  1677   000C98  35C4               	rlcf	(main@i_854+1)& (0+255),w,b
  1678   000C9A  6EDA               	movwf	fsr2h,c
  1679   000C9C  0E98               	movlw	low main@sequencia_usuario
  1680   000C9E  26D9               	addwf	fsr2l,f,c
  1681   000CA0  0E00               	movlw	high main@sequencia_usuario
  1682   000CA2  22DA               	addwfc	fsr2h,f,c
  1683   000CA4  0E03               	movlw	3
  1684   000CA6  6EDE               	movwf	postinc2,c
  1685   000CA8  0E00               	movlw	0
  1686   000CAA  6EDD               	movwf	postdec2,c
  1687   000CAC                     
  1688                           ; BSR set to: 0
  1689                           ;main.c: 443:                         if (i < estagio-1 && array[i] == sequencia_usuario
      +                          [i]) {
  1690   000CAC  0EFF               	movlw	255
  1691   000CAE  25C9               	addwf	main@estagio& (0+255),w,b
  1692   000CB0  6E50               	movwf	??_main^0,c
  1693   000CB2  0EFF               	movlw	255
  1694   000CB4  21CA               	addwfc	(main@estagio+1)& (0+255),w,b
  1695   000CB6  6E51               	movwf	(??_main+1)^0,c
  1696   000CB8  5050               	movf	??_main^0,w,c
  1697   000CBA  5DC3               	subwf	main@i_854& (0+255),w,b
  1698   000CBC  51C4               	movf	(main@i_854+1)& (0+255),w,b
  1699   000CBE  0A80               	xorlw	128
  1700   000CC0  6E52               	movwf	(??_main+2)^0,c
  1701   000CC2  5051               	movf	(??_main+1)^0,w,c
  1702   000CC4  0A80               	xorlw	128
  1703   000CC6  5852               	subwfb	(??_main+2)^0,w,c
  1704   000CC8  B0D8               	btfsc	status,0,c
  1705   000CCA  EF69  F006         	goto	u2091
  1706   000CCE  EF6B  F006         	goto	u2090
  1707   000CD2                     u2091:
  1708   000CD2  EF1A  F007         	goto	l2645
  1709   000CD6                     u2090:
  1710   000CD6                     
  1711                           ; BSR set to: 0
  1712   000CD6  90D8               	bcf	status,0,c
  1713   000CD8  35C3               	rlcf	main@i_854& (0+255),w,b
  1714   000CDA  6ED9               	movwf	fsr2l,c
  1715   000CDC  35C4               	rlcf	(main@i_854+1)& (0+255),w,b
  1716   000CDE  6EDA               	movwf	fsr2h,c
  1717   000CE0  0E98               	movlw	low main@sequencia_usuario
  1718   000CE2  26D9               	addwf	fsr2l,f,c
  1719   000CE4  0E00               	movlw	high main@sequencia_usuario
  1720   000CE6  22DA               	addwfc	fsr2h,f,c
  1721   000CE8  90D8               	bcf	status,0,c
  1722   000CEA  35C3               	rlcf	main@i_854& (0+255),w,b
  1723   000CEC  6EE1               	movwf	fsr1l,c
  1724   000CEE  35C4               	rlcf	(main@i_854+1)& (0+255),w,b
  1725   000CF0  6EE2               	movwf	fsr1h,c
  1726   000CF2  0E80               	movlw	low main@array
  1727   000CF4  26E1               	addwf	fsr1l,f,c
  1728   000CF6  0E00               	movlw	high main@array
  1729   000CF8  22E2               	addwfc	fsr1h,f,c
  1730   000CFA  50DE               	movf	postinc2,w,c
  1731   000CFC  18E6               	xorwf	postinc1,w,c
  1732   000CFE  E107               	bnz	u2101
  1733   000D00  50DE               	movf	postinc2,w,c
  1734   000D02  18E6               	xorwf	postinc1,w,c
  1735   000D04  A4D8               	btfss	status,2,c
  1736   000D06  EF87  F006         	goto	u2101
  1737   000D0A  EF89  F006         	goto	u2100
  1738   000D0E                     u2101:
  1739   000D0E  EF1A  F007         	goto	l2645
  1740   000D12                     u2100:
  1741   000D12  EF89  F005         	goto	l2585
  1742   000D16                     l2623:
  1743                           
  1744                           ; BSR set to: 0
  1745                           ;main.c: 448:                 }
  1746   000D16  4BC3               	infsnz	main@i_854& (0+255),f,b
  1747   000D18  2BC4               	incf	(main@i_854+1)& (0+255),f,b
  1748   000D1A                     l2625:
  1749                           
  1750                           ; BSR set to: 0
  1751   000D1A  51C9               	movf	main@estagio& (0+255),w,b
  1752   000D1C  5DC3               	subwf	main@i_854& (0+255),w,b
  1753   000D1E  51C4               	movf	(main@i_854+1)& (0+255),w,b
  1754   000D20  0A80               	xorlw	128
  1755   000D22  6E50               	movwf	??_main^0,c
  1756   000D24  51CA               	movf	(main@estagio+1)& (0+255),w,b
  1757   000D26  0A80               	xorlw	128
  1758   000D28  5850               	subwfb	??_main^0,w,c
  1759   000D2A  A0D8               	btfss	status,0,c
  1760   000D2C  EF9A  F006         	goto	u2111
  1761   000D30  EF9C  F006         	goto	u2110
  1762   000D34                     u2111:
  1763   000D34  EF37  F006         	goto	l2613
  1764   000D38                     u2110:
  1765   000D38  EF1A  F007         	goto	l2645
  1766   000D3C                     l2627:
  1767                           
  1768                           ; BSR set to: 0
  1769   000D3C  05CD               	decf	_pressedBTN4& (0+255),w,b
  1770   000D3E  11CE               	iorwf	(_pressedBTN4+1)& (0+255),w,b
  1771   000D40  A4D8               	btfss	status,2,c
  1772   000D42  EFA5  F006         	goto	u2121
  1773   000D46  EFA7  F006         	goto	u2120
  1774   000D4A                     u2121:
  1775   000D4A  EF1A  F007         	goto	l2645
  1776   000D4E                     u2120:
  1777   000D4E                     
  1778                           ; BSR set to: 0
  1779                           ;main.c: 451:                 pressedBTN4 = 0;
  1780   000D4E  0E00               	movlw	0
  1781   000D50  6FCE               	movwf	(_pressedBTN4+1)& (0+255),b
  1782   000D52  0E00               	movlw	0
  1783   000D54  6FCD               	movwf	_pressedBTN4& (0+255),b
  1784                           
  1785                           ;main.c: 452:                 sequencia_facil_finalizou = 1;
  1786   000D56  0E00               	movlw	0
  1787   000D58  6FBA               	movwf	(main@sequencia_facil_finalizou+1)& (0+255),b
  1788   000D5A  0E01               	movlw	1
  1789   000D5C  6FB9               	movwf	main@sequencia_facil_finalizou& (0+255),b
  1790                           
  1791                           ;main.c: 453:                 for (int i = 0; i < estagio; i++) {
  1792   000D5E  0E00               	movlw	0
  1793   000D60  6FC6               	movwf	(main@i_855+1)& (0+255),b
  1794   000D62  0E00               	movlw	0
  1795   000D64  6FC5               	movwf	main@i_855& (0+255),b
  1796   000D66  EF0B  F007         	goto	l2643
  1797   000D6A                     l2631:
  1798                           
  1799                           ; BSR set to: 0
  1800                           ;main.c: 454:                     if (sequencia_usuario[i] == 0) {
  1801   000D6A  90D8               	bcf	status,0,c
  1802   000D6C  35C5               	rlcf	main@i_855& (0+255),w,b
  1803   000D6E  6ED9               	movwf	fsr2l,c
  1804   000D70  35C6               	rlcf	(main@i_855+1)& (0+255),w,b
  1805   000D72  6EDA               	movwf	fsr2h,c
  1806   000D74  0E98               	movlw	low main@sequencia_usuario
  1807   000D76  26D9               	addwf	fsr2l,f,c
  1808   000D78  0E00               	movlw	high main@sequencia_usuario
  1809   000D7A  22DA               	addwfc	fsr2h,f,c
  1810   000D7C  50DE               	movf	postinc2,w,c
  1811   000D7E  10DE               	iorwf	postinc2,w,c
  1812   000D80  A4D8               	btfss	status,2,c
  1813   000D82  EFC5  F006         	goto	u2131
  1814   000D86  EFC7  F006         	goto	u2130
  1815   000D8A                     u2131:
  1816   000D8A  EF09  F007         	goto	l2641
  1817   000D8E                     u2130:
  1818   000D8E                     
  1819                           ; BSR set to: 0
  1820                           ;main.c: 455:                         sequencia_usuario[i] = 4;
  1821   000D8E  90D8               	bcf	status,0,c
  1822   000D90  35C5               	rlcf	main@i_855& (0+255),w,b
  1823   000D92  6ED9               	movwf	fsr2l,c
  1824   000D94  35C6               	rlcf	(main@i_855+1)& (0+255),w,b
  1825   000D96  6EDA               	movwf	fsr2h,c
  1826   000D98  0E98               	movlw	low main@sequencia_usuario
  1827   000D9A  26D9               	addwf	fsr2l,f,c
  1828   000D9C  0E00               	movlw	high main@sequencia_usuario
  1829   000D9E  22DA               	addwfc	fsr2h,f,c
  1830   000DA0  0E04               	movlw	4
  1831   000DA2  6EDE               	movwf	postinc2,c
  1832   000DA4  0E00               	movlw	0
  1833   000DA6  6EDD               	movwf	postdec2,c
  1834   000DA8                     
  1835                           ; BSR set to: 0
  1836                           ;main.c: 456:                         if (i < estagio-1 && array[i] == sequencia_usuario
      +                          [i]) {
  1837   000DA8  0EFF               	movlw	255
  1838   000DAA  25C9               	addwf	main@estagio& (0+255),w,b
  1839   000DAC  6E50               	movwf	??_main^0,c
  1840   000DAE  0EFF               	movlw	255
  1841   000DB0  21CA               	addwfc	(main@estagio+1)& (0+255),w,b
  1842   000DB2  6E51               	movwf	(??_main+1)^0,c
  1843   000DB4  5050               	movf	??_main^0,w,c
  1844   000DB6  5DC5               	subwf	main@i_855& (0+255),w,b
  1845   000DB8  51C6               	movf	(main@i_855+1)& (0+255),w,b
  1846   000DBA  0A80               	xorlw	128
  1847   000DBC  6E52               	movwf	(??_main+2)^0,c
  1848   000DBE  5051               	movf	(??_main+1)^0,w,c
  1849   000DC0  0A80               	xorlw	128
  1850   000DC2  5852               	subwfb	(??_main+2)^0,w,c
  1851   000DC4  B0D8               	btfsc	status,0,c
  1852   000DC6  EFE7  F006         	goto	u2141
  1853   000DCA  EFE9  F006         	goto	u2140
  1854   000DCE                     u2141:
  1855   000DCE  EF1A  F007         	goto	l2645
  1856   000DD2                     u2140:
  1857   000DD2                     
  1858                           ; BSR set to: 0
  1859   000DD2  90D8               	bcf	status,0,c
  1860   000DD4  35C5               	rlcf	main@i_855& (0+255),w,b
  1861   000DD6  6ED9               	movwf	fsr2l,c
  1862   000DD8  35C6               	rlcf	(main@i_855+1)& (0+255),w,b
  1863   000DDA  6EDA               	movwf	fsr2h,c
  1864   000DDC  0E98               	movlw	low main@sequencia_usuario
  1865   000DDE  26D9               	addwf	fsr2l,f,c
  1866   000DE0  0E00               	movlw	high main@sequencia_usuario
  1867   000DE2  22DA               	addwfc	fsr2h,f,c
  1868   000DE4  90D8               	bcf	status,0,c
  1869   000DE6  35C5               	rlcf	main@i_855& (0+255),w,b
  1870   000DE8  6EE1               	movwf	fsr1l,c
  1871   000DEA  35C6               	rlcf	(main@i_855+1)& (0+255),w,b
  1872   000DEC  6EE2               	movwf	fsr1h,c
  1873   000DEE  0E80               	movlw	low main@array
  1874   000DF0  26E1               	addwf	fsr1l,f,c
  1875   000DF2  0E00               	movlw	high main@array
  1876   000DF4  22E2               	addwfc	fsr1h,f,c
  1877   000DF6  50DE               	movf	postinc2,w,c
  1878   000DF8  18E6               	xorwf	postinc1,w,c
  1879   000DFA  E107               	bnz	u2151
  1880   000DFC  50DE               	movf	postinc2,w,c
  1881   000DFE  18E6               	xorwf	postinc1,w,c
  1882   000E00  A4D8               	btfss	status,2,c
  1883   000E02  EF05  F007         	goto	u2151
  1884   000E06  EF07  F007         	goto	u2150
  1885   000E0A                     u2151:
  1886   000E0A  EF1A  F007         	goto	l2645
  1887   000E0E                     u2150:
  1888   000E0E  EF89  F005         	goto	l2585
  1889   000E12                     l2641:
  1890                           
  1891                           ; BSR set to: 0
  1892                           ;main.c: 461:                 }
  1893   000E12  4BC5               	infsnz	main@i_855& (0+255),f,b
  1894   000E14  2BC6               	incf	(main@i_855+1)& (0+255),f,b
  1895   000E16                     l2643:
  1896                           
  1897                           ; BSR set to: 0
  1898   000E16  51C9               	movf	main@estagio& (0+255),w,b
  1899   000E18  5DC5               	subwf	main@i_855& (0+255),w,b
  1900   000E1A  51C6               	movf	(main@i_855+1)& (0+255),w,b
  1901   000E1C  0A80               	xorlw	128
  1902   000E1E  6E50               	movwf	??_main^0,c
  1903   000E20  51CA               	movf	(main@estagio+1)& (0+255),w,b
  1904   000E22  0A80               	xorlw	128
  1905   000E24  5850               	subwfb	??_main^0,w,c
  1906   000E26  A0D8               	btfss	status,0,c
  1907   000E28  EF18  F007         	goto	u2161
  1908   000E2C  EF1A  F007         	goto	u2160
  1909   000E30                     u2161:
  1910   000E30  EFB5  F006         	goto	l2631
  1911   000E34                     u2160:
  1912   000E34                     l2645:
  1913                           
  1914                           ; BSR set to: 0
  1915                           ;main.c: 465:             if (sequencia_facil_finalizou == 1) {
  1916   000E34  05B9               	decf	main@sequencia_facil_finalizou& (0+255),w,b
  1917   000E36  11BA               	iorwf	(main@sequencia_facil_finalizou+1)& (0+255),w,b
  1918   000E38  A4D8               	btfss	status,2,c
  1919   000E3A  EF21  F007         	goto	u2171
  1920   000E3E  EF23  F007         	goto	u2170
  1921   000E42                     u2171:
  1922   000E42  EFFA  F007         	goto	l2715
  1923   000E46                     u2170:
  1924   000E46                     
  1925                           ; BSR set to: 0
  1926                           ;main.c: 466:                 for (int i = 0; i < estagio; i++) {
  1927   000E46  0E00               	movlw	0
  1928   000E48  6FBE               	movwf	(main@i_856+1)& (0+255),b
  1929   000E4A  0E00               	movlw	0
  1930   000E4C  6FBD               	movwf	main@i_856& (0+255),b
  1931   000E4E  EF61  F007         	goto	l2657
  1932   000E52                     l2649:
  1933                           
  1934                           ; BSR set to: 0
  1935                           ;main.c: 467:                     printf("%d ", sequencia_usuario[i]);
  1936   000E52  0E1E               	movlw	low STR_2
  1937   000E54  6E4A               	movwf	printf@fmt^0,c
  1938   000E56  0E06               	movlw	high STR_2
  1939   000E58  6E4B               	movwf	(printf@fmt+1)^0,c
  1940   000E5A  90D8               	bcf	status,0,c
  1941   000E5C  35BD               	rlcf	main@i_856& (0+255),w,b
  1942   000E5E  6ED9               	movwf	fsr2l,c
  1943   000E60  35BE               	rlcf	(main@i_856+1)& (0+255),w,b
  1944   000E62  6EDA               	movwf	fsr2h,c
  1945   000E64  0E98               	movlw	low main@sequencia_usuario
  1946   000E66  26D9               	addwf	fsr2l,f,c
  1947   000E68  0E00               	movlw	high main@sequencia_usuario
  1948   000E6A  22DA               	addwfc	fsr2h,f,c
  1949   000E6C  CFDE F04C          	movff	postinc2,?_printf+2
  1950   000E70  CFDD F04D          	movff	postdec2,?_printf+3
  1951   000E74  EC43  F00F         	call	_printf	;wreg free
  1952   000E78                     
  1953                           ;main.c: 468:                     if (sequencia_usuario[i] != array[i]) {
  1954   000E78  90D8               	bcf	status,0,c
  1955   000E7A  0100               	movlb	0	; () banked
  1956   000E7C  35BD               	rlcf	main@i_856& (0+255),w,b
  1957   000E7E  6ED9               	movwf	fsr2l,c
  1958   000E80  35BE               	rlcf	(main@i_856+1)& (0+255),w,b
  1959   000E82  6EDA               	movwf	fsr2h,c
  1960   000E84  0E80               	movlw	low main@array
  1961   000E86  26D9               	addwf	fsr2l,f,c
  1962   000E88  0E00               	movlw	high main@array
  1963   000E8A  22DA               	addwfc	fsr2h,f,c
  1964   000E8C  90D8               	bcf	status,0,c
  1965   000E8E  35BD               	rlcf	main@i_856& (0+255),w,b
  1966   000E90  6EE1               	movwf	fsr1l,c
  1967   000E92  35BE               	rlcf	(main@i_856+1)& (0+255),w,b
  1968   000E94  6EE2               	movwf	fsr1h,c
  1969   000E96  0E98               	movlw	low main@sequencia_usuario
  1970   000E98  26E1               	addwf	fsr1l,f,c
  1971   000E9A  0E00               	movlw	high main@sequencia_usuario
  1972   000E9C  22E2               	addwfc	fsr1h,f,c
  1973   000E9E  50DE               	movf	postinc2,w,c
  1974   000EA0  18E6               	xorwf	postinc1,w,c
  1975   000EA2  E109               	bnz	u2180
  1976   000EA4  50DE               	movf	postinc2,w,c
  1977   000EA6  18E6               	xorwf	postinc1,w,c
  1978   000EA8  B4D8               	btfsc	status,2,c
  1979   000EAA  EF59  F007         	goto	u2181
  1980   000EAE  EF5B  F007         	goto	u2180
  1981   000EB2                     u2181:
  1982   000EB2  EF5F  F007         	goto	l2655
  1983   000EB6                     u2180:
  1984   000EB6                     
  1985                           ; BSR set to: 0
  1986                           ;main.c: 469:                         sequencia_facil_perdeu = 1;
  1987   000EB6  0E00               	movlw	0
  1988   000EB8  6FB3               	movwf	(main@sequencia_facil_perdeu+1)& (0+255),b
  1989   000EBA  0E01               	movlw	1
  1990   000EBC  6FB2               	movwf	main@sequencia_facil_perdeu& (0+255),b
  1991   000EBE                     l2655:
  1992                           
  1993                           ; BSR set to: 0
  1994                           ;main.c: 471:                 }
  1995   000EBE  4BBD               	infsnz	main@i_856& (0+255),f,b
  1996   000EC0  2BBE               	incf	(main@i_856+1)& (0+255),f,b
  1997   000EC2                     l2657:
  1998                           
  1999                           ; BSR set to: 0
  2000   000EC2  51C9               	movf	main@estagio& (0+255),w,b
  2001   000EC4  5DBD               	subwf	main@i_856& (0+255),w,b
  2002   000EC6  51BE               	movf	(main@i_856+1)& (0+255),w,b
  2003   000EC8  0A80               	xorlw	128
  2004   000ECA  6E50               	movwf	??_main^0,c
  2005   000ECC  51CA               	movf	(main@estagio+1)& (0+255),w,b
  2006   000ECE  0A80               	xorlw	128
  2007   000ED0  5850               	subwfb	??_main^0,w,c
  2008   000ED2  A0D8               	btfss	status,0,c
  2009   000ED4  EF6E  F007         	goto	u2191
  2010   000ED8  EF70  F007         	goto	u2190
  2011   000EDC                     u2191:
  2012   000EDC  EF29  F007         	goto	l2649
  2013   000EE0                     u2190:
  2014   000EE0                     
  2015                           ; BSR set to: 0
  2016                           ;main.c: 472:                 if (sequencia_facil_perdeu == 1) {
  2017   000EE0  05B2               	decf	main@sequencia_facil_perdeu& (0+255),w,b
  2018   000EE2  11B3               	iorwf	(main@sequencia_facil_perdeu+1)& (0+255),w,b
  2019   000EE4  A4D8               	btfss	status,2,c
  2020   000EE6  EF77  F007         	goto	u2201
  2021   000EEA  EF79  F007         	goto	u2200
  2022   000EEE                     u2201:
  2023   000EEE  EFC0  F007         	goto	l2691
  2024   000EF2                     u2200:
  2025   000EF2                     
  2026                           ; BSR set to: 0
  2027                           ;main.c: 473:                     printf("perdeu ");
  2028   000EF2  0E0E               	movlw	low STR_4
  2029   000EF4  6E4A               	movwf	printf@fmt^0,c
  2030   000EF6  0E06               	movlw	high STR_4
  2031   000EF8  6E4B               	movwf	(printf@fmt+1)^0,c
  2032   000EFA  EC43  F00F         	call	_printf	;wreg free
  2033   000EFE                     
  2034                           ;main.c: 474:                     reproduz_derrota();
  2035   000EFE  EC23  F00A         	call	_reproduz_derrota	;wreg free
  2036   000F02                     
  2037                           ;main.c: 476:                     possui_sequencia_facil = 0;
  2038   000F02  0E00               	movlw	0
  2039   000F04  0100               	movlb	0	; () banked
  2040   000F06  6FB1               	movwf	(main@possui_sequencia_facil+1)& (0+255),b
  2041   000F08  0E00               	movlw	0
  2042   000F0A  6FB0               	movwf	main@possui_sequencia_facil& (0+255),b
  2043   000F0C                     
  2044                           ; BSR set to: 0
  2045                           ;main.c: 477:                     esperando_sequencia_facil = 0;
  2046   000F0C  0E00               	movlw	0
  2047   000F0E  6FCC               	movwf	(_esperando_sequencia_facil+1)& (0+255),b
  2048   000F10  0E00               	movlw	0
  2049   000F12  6FCB               	movwf	_esperando_sequencia_facil& (0+255),b
  2050   000F14                     
  2051                           ; BSR set to: 0
  2052                           ;main.c: 478:                     sequencia_facil_finalizou = 0;
  2053   000F14  0E00               	movlw	0
  2054   000F16  6FBA               	movwf	(main@sequencia_facil_finalizou+1)& (0+255),b
  2055   000F18  0E00               	movlw	0
  2056   000F1A  6FB9               	movwf	main@sequencia_facil_finalizou& (0+255),b
  2057   000F1C                     
  2058                           ; BSR set to: 0
  2059                           ;main.c: 479:                     sequencia_facil_perdeu = 0;
  2060   000F1C  0E00               	movlw	0
  2061   000F1E  6FB3               	movwf	(main@sequencia_facil_perdeu+1)& (0+255),b
  2062   000F20  0E00               	movlw	0
  2063   000F22  6FB2               	movwf	main@sequencia_facil_perdeu& (0+255),b
  2064   000F24                     
  2065                           ; BSR set to: 0
  2066                           ;main.c: 480:                     estagio = 1;
  2067   000F24  0E00               	movlw	0
  2068   000F26  6FCA               	movwf	(main@estagio+1)& (0+255),b
  2069   000F28  0E01               	movlw	1
  2070   000F2A  6FC9               	movwf	main@estagio& (0+255),b
  2071   000F2C                     
  2072                           ; BSR set to: 0
  2073                           ;main.c: 482:                     for (char i = 0; i < 12; i++) {
  2074   000F2C  0E00               	movlw	0
  2075   000F2E  6FBB               	movwf	main@i_860& (0+255),b
  2076   000F30                     l2677:
  2077                           
  2078                           ; BSR set to: 0
  2079   000F30  0E0B               	movlw	11
  2080   000F32  65BB               	cpfsgt	main@i_860& (0+255),b
  2081   000F34  EF9E  F007         	goto	u2211
  2082   000F38  EFA0  F007         	goto	u2210
  2083   000F3C                     u2211:
  2084   000F3C  EFA2  F007         	goto	l2681
  2085   000F40                     u2210:
  2086   000F40  EFAF  F007         	goto	l2687
  2087   000F44                     l2681:
  2088                           
  2089                           ; BSR set to: 0
  2090                           ;main.c: 483:                         sequencia_usuario[i] = 0;
  2091   000F44  51BB               	movf	main@i_860& (0+255),w,b
  2092   000F46  0D02               	mullw	2
  2093   000F48  0E98               	movlw	low main@sequencia_usuario
  2094   000F4A  24F3               	addwf	243,w,c
  2095   000F4C  6ED9               	movwf	fsr2l,c
  2096   000F4E  0E00               	movlw	high main@sequencia_usuario
  2097   000F50  20F4               	addwfc	prodh,w,c
  2098   000F52  6EDA               	movwf	fsr2h,c
  2099   000F54  6ADE               	clrf	postinc2,c
  2100   000F56  6ADD               	clrf	postdec2,c
  2101   000F58                     
  2102                           ; BSR set to: 0
  2103                           ;main.c: 484:                     }
  2104   000F58  2BBB               	incf	main@i_860& (0+255),f,b
  2105   000F5A  EF98  F007         	goto	l2677
  2106   000F5E                     l2687:
  2107                           
  2108                           ; BSR set to: 0
  2109                           ;main.c: 486:                     _delay((unsigned long)((1000)*(16000000/4000.0)));
  2110   000F5E  0E15               	movlw	21
  2111   000F60  6E51               	movwf	(??_main+1)^0,c
  2112   000F62  0E4B               	movlw	75
  2113   000F64  6E50               	movwf	??_main^0,c
  2114   000F66  0EBE               	movlw	190
  2115   000F68                     u2327:
  2116   000F68  2EE8               	decfsz	wreg,f,c
  2117   000F6A  D7FE               	bra	u2327
  2118   000F6C  2E50               	decfsz	??_main^0,f,c
  2119   000F6E  D7FC               	bra	u2327
  2120   000F70  2E51               	decfsz	(??_main+1)^0,f,c
  2121   000F72  D7FA               	bra	u2327
  2122   000F74  D000               	nop2	
  2123   000F76                     
  2124                           ;main.c: 487:                     game_iniciou = 0;
  2125   000F76  0E00               	movlw	0
  2126   000F78  0100               	movlb	0	; () banked
  2127   000F7A  6FD5               	movwf	_game_iniciou& (0+255),b
  2128                           
  2129                           ;main.c: 489:                 } else {
  2130   000F7C  EFFA  F007         	goto	l2715
  2131   000F80                     l2691:
  2132                           
  2133                           ; BSR set to: 0
  2134                           ;main.c: 490:                     printf("ganhou ");
  2135   000F80  0E16               	movlw	low STR_5
  2136   000F82  6E4A               	movwf	printf@fmt^0,c
  2137   000F84  0E06               	movlw	high STR_5
  2138   000F86  6E4B               	movwf	(printf@fmt+1)^0,c
  2139   000F88  EC43  F00F         	call	_printf	;wreg free
  2140   000F8C                     
  2141                           ;main.c: 491:                     estagio++;
  2142   000F8C  0100               	movlb	0	; () banked
  2143   000F8E  4BC9               	infsnz	main@estagio& (0+255),f,b
  2144   000F90  2BCA               	incf	(main@estagio+1)& (0+255),f,b
  2145   000F92                     
  2146                           ; BSR set to: 0
  2147                           ;main.c: 493:                     esperando_sequencia_facil = 0;
  2148   000F92  0E00               	movlw	0
  2149   000F94  6FCC               	movwf	(_esperando_sequencia_facil+1)& (0+255),b
  2150   000F96  0E00               	movlw	0
  2151   000F98  6FCB               	movwf	_esperando_sequencia_facil& (0+255),b
  2152   000F9A                     
  2153                           ; BSR set to: 0
  2154                           ;main.c: 494:                     sequencia_facil_finalizou = 0;
  2155   000F9A  0E00               	movlw	0
  2156   000F9C  6FBA               	movwf	(main@sequencia_facil_finalizou+1)& (0+255),b
  2157   000F9E  0E00               	movlw	0
  2158   000FA0  6FB9               	movwf	main@sequencia_facil_finalizou& (0+255),b
  2159   000FA2                     
  2160                           ; BSR set to: 0
  2161                           ;main.c: 495:                     sequencia_facil_perdeu = 0;
  2162   000FA2  0E00               	movlw	0
  2163   000FA4  6FB3               	movwf	(main@sequencia_facil_perdeu+1)& (0+255),b
  2164   000FA6  0E00               	movlw	0
  2165   000FA8  6FB2               	movwf	main@sequencia_facil_perdeu& (0+255),b
  2166   000FAA                     
  2167                           ; BSR set to: 0
  2168                           ;main.c: 497:                     for (char i = 0; i < 12; i++) {
  2169   000FAA  0E00               	movlw	0
  2170   000FAC  6FBC               	movwf	main@i_862& (0+255),b
  2171   000FAE                     l2703:
  2172                           
  2173                           ; BSR set to: 0
  2174   000FAE  0E0B               	movlw	11
  2175   000FB0  65BC               	cpfsgt	main@i_862& (0+255),b
  2176   000FB2  EFDD  F007         	goto	u2221
  2177   000FB6  EFDF  F007         	goto	u2220
  2178   000FBA                     u2221:
  2179   000FBA  EFE1  F007         	goto	l2707
  2180   000FBE                     u2220:
  2181   000FBE  EFEE  F007         	goto	l2713
  2182   000FC2                     l2707:
  2183                           
  2184                           ; BSR set to: 0
  2185                           ;main.c: 498:                         sequencia_usuario[i] = 0;
  2186   000FC2  51BC               	movf	main@i_862& (0+255),w,b
  2187   000FC4  0D02               	mullw	2
  2188   000FC6  0E98               	movlw	low main@sequencia_usuario
  2189   000FC8  24F3               	addwf	243,w,c
  2190   000FCA  6ED9               	movwf	fsr2l,c
  2191   000FCC  0E00               	movlw	high main@sequencia_usuario
  2192   000FCE  20F4               	addwfc	prodh,w,c
  2193   000FD0  6EDA               	movwf	fsr2h,c
  2194   000FD2  6ADE               	clrf	postinc2,c
  2195   000FD4  6ADD               	clrf	postdec2,c
  2196   000FD6                     
  2197                           ; BSR set to: 0
  2198                           ;main.c: 499:                     }
  2199   000FD6  2BBC               	incf	main@i_862& (0+255),f,b
  2200   000FD8  EFD7  F007         	goto	l2703
  2201   000FDC                     l2713:
  2202                           
  2203                           ; BSR set to: 0
  2204                           ;main.c: 501:                     _delay((unsigned long)((1000)*(16000000/4000.0)));
  2205   000FDC  0E15               	movlw	21
  2206   000FDE  6E51               	movwf	(??_main+1)^0,c
  2207   000FE0  0E4B               	movlw	75
  2208   000FE2  6E50               	movwf	??_main^0,c
  2209   000FE4  0EBE               	movlw	190
  2210   000FE6                     u2337:
  2211   000FE6  2EE8               	decfsz	wreg,f,c
  2212   000FE8  D7FE               	bra	u2337
  2213   000FEA  2E50               	decfsz	??_main^0,f,c
  2214   000FEC  D7FC               	bra	u2337
  2215   000FEE  2E51               	decfsz	(??_main+1)^0,f,c
  2216   000FF0  D7FA               	bra	u2337
  2217   000FF2  D000               	nop2	
  2218   000FF4                     l2715:
  2219                           
  2220                           ;main.c: 506:         if (estagio > 12) {
  2221   000FF4  0100               	movlb	0	; () banked
  2222   000FF6  BFCA               	btfsc	(main@estagio+1)& (0+255),7,b
  2223   000FF8  EF07  F008         	goto	u2231
  2224   000FFC  51CA               	movf	(main@estagio+1)& (0+255),w,b
  2225   000FFE  E109               	bnz	u2230
  2226   001000  0E0D               	movlw	13
  2227   001002  5DC9               	subwf	main@estagio& (0+255),w,b
  2228   001004  A0D8               	btfss	status,0,c
  2229   001006  EF07  F008         	goto	u2231
  2230   00100A  EF09  F008         	goto	u2230
  2231   00100E                     u2231:
  2232   00100E  EF39  F003         	goto	l2493
  2233   001012                     u2230:
  2234   001012                     
  2235                           ; BSR set to: 0
  2236                           ;main.c: 507:             possui_sequencia_facil = 0;
  2237   001012  0E00               	movlw	0
  2238   001014  6FB1               	movwf	(main@possui_sequencia_facil+1)& (0+255),b
  2239   001016  0E00               	movlw	0
  2240   001018  6FB0               	movwf	main@possui_sequencia_facil& (0+255),b
  2241                           
  2242                           ;main.c: 508:             estagio = 1;
  2243   00101A  0E00               	movlw	0
  2244   00101C  6FCA               	movwf	(main@estagio+1)& (0+255),b
  2245   00101E  0E01               	movlw	1
  2246   001020  6FC9               	movwf	main@estagio& (0+255),b
  2247                           
  2248                           ;main.c: 509:             game_iniciou = 0;
  2249   001022  0E00               	movlw	0
  2250   001024  6FD5               	movwf	_game_iniciou& (0+255),b
  2251                           
  2252                           ;main.c: 511:             for (char i = 0; i < 3; i++) {
  2253   001026  0E00               	movlw	0
  2254   001028  6FB6               	movwf	main@i_863& (0+255),b
  2255   00102A                     l2719:
  2256                           
  2257                           ; BSR set to: 0
  2258   00102A  0E02               	movlw	2
  2259   00102C  65B6               	cpfsgt	main@i_863& (0+255),b
  2260   00102E  EF1B  F008         	goto	u2241
  2261   001032  EF1D  F008         	goto	u2240
  2262   001036                     u2241:
  2263   001036  EF1F  F008         	goto	l2723
  2264   00103A                     u2240:
  2265   00103A  EF39  F003         	goto	l2493
  2266   00103E                     l2723:
  2267                           
  2268                           ; BSR set to: 0
  2269                           ;main.c: 512:                 reproduz_vitoria();
  2270   00103E  EC78  F00B         	call	_reproduz_vitoria	;wreg free
  2271   001042                     
  2272                           ;main.c: 513:             }
  2273   001042  0100               	movlb	0	; () banked
  2274   001044  2BB6               	incf	main@i_863& (0+255),f,b
  2275   001046  EF15  F008         	goto	l2719
  2276   00104A  EF07  F000         	goto	start
  2277   00104E                     __end_of_main:
  2278                           	callstack 0
  2279                           
  2280 ;; *************** function _srand *****************
  2281 ;; Defined at:
  2282 ;;		line 6 in file "C:\Program Files\Microchip\xc8\v2.41\pic\sources\c99\common\rand.c"
  2283 ;; Parameters:    Size  Location     Type
  2284 ;;  s               2   18[COMRAM] unsigned int 
  2285 ;; Auto vars:     Size  Location     Type
  2286 ;;		None
  2287 ;; Return value:  Size  Location     Type
  2288 ;;                  1    wreg      void 
  2289 ;; Registers used:
  2290 ;;		wreg, status,2, status,0
  2291 ;; Tracked objects:
  2292 ;;		On entry : 0/0
  2293 ;;		On exit  : 0/0
  2294 ;;		Unchanged: 0/0
  2295 ;; Data sizes:     COMRAM   BANK0   BANK1   BANK2   BANK3   BANK4   BANK5
  2296 ;;      Params:         2       0       0       0       0       0       0
  2297 ;;      Locals:         0       0       0       0       0       0       0
  2298 ;;      Temps:          2       0       0       0       0       0       0
  2299 ;;      Totals:         4       0       0       0       0       0       0
  2300 ;;Total ram usage:        4 bytes
  2301 ;; Hardware stack levels used: 1
  2302 ;; Hardware stack levels required when called: 1
  2303 ;; This function calls:
  2304 ;;		Nothing
  2305 ;; This function is called by:
  2306 ;;		_main
  2307 ;; This function uses a non-reentrant model
  2308 ;;
  2309                           
  2310                           	psect	text1
  2311   001ECE                     __ptext1:
  2312                           	callstack 0
  2313   001ECE                     _srand:
  2314                           	callstack 29
  2315   001ECE  0EFF               	movlw	255
  2316   001ED0  2413               	addwf	srand@s^0,w,c
  2317   001ED2  6E15               	movwf	??_srand^0,c
  2318   001ED4  0EFF               	movlw	255
  2319   001ED6  2014               	addwfc	(srand@s+1)^0,w,c
  2320   001ED8  6E16               	movwf	(??_srand+1)^0,c
  2321   001EDA  C015  F06D         	movff	??_srand,_seed
  2322   001EDE  C016  F06E         	movff	??_srand+1,_seed+1
  2323   001EE2  6A6F               	clrf	(_seed+2)^0,c
  2324   001EE4  6A70               	clrf	(_seed+3)^0,c
  2325   001EE6  0012               	return		;funcret
  2326   001EE8                     __end_of_srand:
  2327                           	callstack 0
  2328                           
  2329 ;; *************** function _setLED *****************
  2330 ;; Defined at:
  2331 ;;		line 150 in file "main.c"
  2332 ;; Parameters:    Size  Location     Type
  2333 ;;  pos             1    wreg     unsigned char 
  2334 ;;  value           1   10[COMRAM] unsigned char 
  2335 ;; Auto vars:     Size  Location     Type
  2336 ;;  pos             1   13[COMRAM] unsigned char 
  2337 ;; Return value:  Size  Location     Type
  2338 ;;                  1    wreg      void 
  2339 ;; Registers used:
  2340 ;;		wreg, status,2, status,0
  2341 ;; Tracked objects:
  2342 ;;		On entry : 0/0
  2343 ;;		On exit  : 0/0
  2344 ;;		Unchanged: 0/0
  2345 ;; Data sizes:     COMRAM   BANK0   BANK1   BANK2   BANK3   BANK4   BANK5
  2346 ;;      Params:         1       0       0       0       0       0       0
  2347 ;;      Locals:         1       0       0       0       0       0       0
  2348 ;;      Temps:          2       0       0       0       0       0       0
  2349 ;;      Totals:         4       0       0       0       0       0       0
  2350 ;;Total ram usage:        4 bytes
  2351 ;; Hardware stack levels used: 1
  2352 ;; Hardware stack levels required when called: 1
  2353 ;; This function calls:
  2354 ;;		Nothing
  2355 ;; This function is called by:
  2356 ;;		_main
  2357 ;; This function uses a non-reentrant model
  2358 ;;
  2359                           
  2360                           	psect	text2
  2361   001B7E                     __ptext2:
  2362                           	callstack 0
  2363   001B7E                     _setLED:
  2364                           	callstack 29
  2365                           
  2366                           ;incstack = 0
  2367                           ;setLED@pos stored from wreg
  2368   001B7E  6E0E               	movwf	setLED@pos^0,c
  2369   001B80                     
  2370                           ;main.c: 151:     switch (pos) {
  2371   001B80  EFDE  F00D         	goto	l2181
  2372   001B84                     l120:
  2373                           
  2374                           ;main.c: 153:             PORTDbits.RD0 = value;
  2375   001B84  B00B               	btfsc	setLED@value^0,0,c
  2376   001B86  D002               	bra	u1545
  2377   001B88  9083               	bcf	131,0,c	;volatile
  2378   001B8A  D001               	bra	u1546
  2379   001B8C                     u1545:
  2380   001B8C  8083               	bsf	131,0,c	;volatile
  2381   001B8E                     u1546:
  2382                           
  2383                           ;main.c: 154:             break;
  2384   001B8E  EFFB  F00D         	goto	l125
  2385   001B92                     l122:
  2386                           
  2387                           ;main.c: 156:             PORTDbits.RD1 = value;
  2388   001B92  B00B               	btfsc	setLED@value^0,0,c
  2389   001B94  D002               	bra	u1555
  2390   001B96  9283               	bcf	131,1,c	;volatile
  2391   001B98  D001               	bra	u1556
  2392   001B9A                     u1555:
  2393   001B9A  8283               	bsf	131,1,c	;volatile
  2394   001B9C                     u1556:
  2395                           
  2396                           ;main.c: 157:             break;
  2397   001B9C  EFFB  F00D         	goto	l125
  2398   001BA0                     l123:
  2399                           
  2400                           ;main.c: 159:             PORTDbits.RD2 = value;
  2401   001BA0  B00B               	btfsc	setLED@value^0,0,c
  2402   001BA2  D002               	bra	u1565
  2403   001BA4  9483               	bcf	131,2,c	;volatile
  2404   001BA6  D001               	bra	u1566
  2405   001BA8                     u1565:
  2406   001BA8  8483               	bsf	131,2,c	;volatile
  2407   001BAA                     u1566:
  2408                           
  2409                           ;main.c: 160:             break;
  2410   001BAA  EFFB  F00D         	goto	l125
  2411   001BAE                     l124:
  2412                           
  2413                           ;main.c: 162:             PORTDbits.RD3 = value;
  2414   001BAE  B00B               	btfsc	setLED@value^0,0,c
  2415   001BB0  D002               	bra	u1575
  2416   001BB2  9683               	bcf	131,3,c	;volatile
  2417   001BB4  D001               	bra	u1576
  2418   001BB6                     u1575:
  2419   001BB6  8683               	bsf	131,3,c	;volatile
  2420   001BB8                     u1576:
  2421                           
  2422                           ;main.c: 163:             break;
  2423   001BB8  EFFB  F00D         	goto	l125
  2424   001BBC                     l2181:
  2425   001BBC  500E               	movf	setLED@pos^0,w,c
  2426   001BBE  6E0C               	movwf	??_setLED^0,c
  2427   001BC0  6A0D               	clrf	(??_setLED+1)^0,c
  2428                           
  2429                           ; Switch on 2 bytes has been partitioned into a top level switch of size 1, and 1 sub-sw
      +                          itches
  2430                           ; Switch size 1, requested type "simple"
  2431                           ; Number of cases is 1, Range of values is 0 to 0
  2432                           ; switch strategies available:
  2433                           ; Name         Instructions Cycles
  2434                           ; simple_byte            4     3 (average)
  2435                           ;	Chosen strategy is simple_byte
  2436   001BC2  500D               	movf	(??_setLED+1)^0,w,c
  2437   001BC4  0A00               	xorlw	0	; case 0
  2438   001BC6  B4D8               	btfsc	status,2,c
  2439   001BC8  EFE8  F00D         	goto	l2769
  2440   001BCC  EFFB  F00D         	goto	l125
  2441   001BD0                     l2769:
  2442                           
  2443                           ; Switch size 1, requested type "simple"
  2444                           ; Number of cases is 4, Range of values is 1 to 4
  2445                           ; switch strategies available:
  2446                           ; Name         Instructions Cycles
  2447                           ; simple_byte           13     7 (average)
  2448                           ;	Chosen strategy is simple_byte
  2449   001BD0  500C               	movf	??_setLED^0,w,c
  2450   001BD2  0A01               	xorlw	1	; case 1
  2451   001BD4  B4D8               	btfsc	status,2,c
  2452   001BD6  EFC2  F00D         	goto	l120
  2453   001BDA  0A03               	xorlw	3	; case 2
  2454   001BDC  B4D8               	btfsc	status,2,c
  2455   001BDE  EFC9  F00D         	goto	l122
  2456   001BE2  0A01               	xorlw	1	; case 3
  2457   001BE4  B4D8               	btfsc	status,2,c
  2458   001BE6  EFD0  F00D         	goto	l123
  2459   001BEA  0A07               	xorlw	7	; case 4
  2460   001BEC  B4D8               	btfsc	status,2,c
  2461   001BEE  EFD7  F00D         	goto	l124
  2462   001BF2  EFFB  F00D         	goto	l125
  2463   001BF6                     l125:
  2464   001BF6  0012               	return		;funcret
  2465   001BF8                     __end_of_setLED:
  2466                           	callstack 0
  2467                           
  2468 ;; *************** function _reproduz_vitoria *****************
  2469 ;; Defined at:
  2470 ;;		line 244 in file "main.c"
  2471 ;; Parameters:    Size  Location     Type
  2472 ;;		None
  2473 ;; Auto vars:     Size  Location     Type
  2474 ;;  i               2   17[COMRAM] int 
  2475 ;;  i               2   15[COMRAM] int 
  2476 ;;  i               2   13[COMRAM] int 
  2477 ;;  i               2   11[COMRAM] int 
  2478 ;; Return value:  Size  Location     Type
  2479 ;;                  1    wreg      void 
  2480 ;; Registers used:
  2481 ;;		wreg, status,2, status,0
  2482 ;; Tracked objects:
  2483 ;;		On entry : 0/0
  2484 ;;		On exit  : 0/0
  2485 ;;		Unchanged: 0/0
  2486 ;; Data sizes:     COMRAM   BANK0   BANK1   BANK2   BANK3   BANK4   BANK5
  2487 ;;      Params:         0       0       0       0       0       0       0
  2488 ;;      Locals:         8       0       0       0       0       0       0
  2489 ;;      Temps:          1       0       0       0       0       0       0
  2490 ;;      Totals:         9       0       0       0       0       0       0
  2491 ;;Total ram usage:        9 bytes
  2492 ;; Hardware stack levels used: 1
  2493 ;; Hardware stack levels required when called: 1
  2494 ;; This function calls:
  2495 ;;		Nothing
  2496 ;; This function is called by:
  2497 ;;		_main
  2498 ;; This function uses a non-reentrant model
  2499 ;;
  2500                           
  2501                           	psect	text3
  2502   0016F0                     __ptext3:
  2503                           	callstack 0
  2504   0016F0                     _reproduz_vitoria:
  2505                           	callstack 29
  2506   0016F0                     
  2507                           ;main.c: 246:     PORTDbits.RD0 = 1;
  2508   0016F0  8083               	bsf	131,0,c	;volatile
  2509   0016F2                     
  2510                           ;main.c: 247:     for (int i = 0; i < 255; i++) {
  2511   0016F2  0E00               	movlw	0
  2512   0016F4  6E0D               	movwf	(reproduz_vitoria@i+1)^0,c
  2513   0016F6  0E00               	movlw	0
  2514   0016F8  6E0C               	movwf	reproduz_vitoria@i^0,c
  2515   0016FA                     l150:
  2516                           
  2517                           ;main.c: 248:         PORTCbits.RC2 = 1;
  2518   0016FA  8482               	bsf	130,2,c	;volatile
  2519   0016FC                     
  2520                           ;main.c: 249:         _delay((unsigned long)((700)*(16000000/4000000.0)));
  2521   0016FC  0E04               	movlw	4
  2522   0016FE  6E0B               	movwf	??_reproduz_vitoria^0,c
  2523   001700  0EA2               	movlw	162
  2524   001702                     u2347:
  2525   001702  2EE8               	decfsz	wreg,f,c
  2526   001704  D7FE               	bra	u2347
  2527   001706  2E0B               	decfsz	??_reproduz_vitoria^0,f,c
  2528   001708  D7FC               	bra	u2347
  2529   00170A                     
  2530                           ;main.c: 250:         PORTCbits.RC2 = 0;
  2531   00170A  9482               	bcf	130,2,c	;volatile
  2532                           
  2533                           ;main.c: 251:         _delay((unsigned long)((700)*(16000000/4000000.0)));
  2534   00170C  0E04               	movlw	4
  2535   00170E  6E0B               	movwf	??_reproduz_vitoria^0,c
  2536   001710  0EA2               	movlw	162
  2537   001712                     u2357:
  2538   001712  2EE8               	decfsz	wreg,f,c
  2539   001714  D7FE               	bra	u2357
  2540   001716  2E0B               	decfsz	??_reproduz_vitoria^0,f,c
  2541   001718  D7FC               	bra	u2357
  2542   00171A                     
  2543                           ;main.c: 252:     }
  2544   00171A  4A0C               	infsnz	reproduz_vitoria@i^0,f,c
  2545   00171C  2A0D               	incf	(reproduz_vitoria@i+1)^0,f,c
  2546   00171E  BE0D               	btfsc	(reproduz_vitoria@i+1)^0,7,c
  2547   001720  EF9A  F00B         	goto	u1591
  2548   001724  500D               	movf	(reproduz_vitoria@i+1)^0,w,c
  2549   001726  E108               	bnz	u1590
  2550   001728  280C               	incf	reproduz_vitoria@i^0,w,c
  2551   00172A  A0D8               	btfss	status,0,c
  2552   00172C  EF9A  F00B         	goto	u1591
  2553   001730  EF9C  F00B         	goto	u1590
  2554   001734                     u1591:
  2555   001734  EF7D  F00B         	goto	l150
  2556   001738                     u1590:
  2557   001738                     
  2558                           ;main.c: 253:     PORTDbits.RD0 = 0;
  2559   001738  9083               	bcf	131,0,c	;volatile
  2560                           
  2561                           ;main.c: 255:     PORTDbits.RD1 = 1;
  2562   00173A  8283               	bsf	131,1,c	;volatile
  2563   00173C                     
  2564                           ;main.c: 256:     for (int i = 0; i < 255; i++) {
  2565   00173C  0E00               	movlw	0
  2566   00173E  6E0F               	movwf	(reproduz_vitoria@i_820+1)^0,c
  2567   001740  0E00               	movlw	0
  2568   001742  6E0E               	movwf	reproduz_vitoria@i_820^0,c
  2569   001744                     l152:
  2570                           
  2571                           ;main.c: 257:         PORTCbits.RC2 = 1;
  2572   001744  8482               	bsf	130,2,c	;volatile
  2573   001746                     
  2574                           ;main.c: 258:         _delay((unsigned long)((600)*(16000000/4000000.0)));
  2575   001746  0E04               	movlw	4
  2576   001748  6E0B               	movwf	??_reproduz_vitoria^0,c
  2577   00174A  0E1C               	movlw	28
  2578   00174C                     u2367:
  2579   00174C  2EE8               	decfsz	wreg,f,c
  2580   00174E  D7FE               	bra	u2367
  2581   001750  2E0B               	decfsz	??_reproduz_vitoria^0,f,c
  2582   001752  D7FC               	bra	u2367
  2583   001754  D000               	nop2	
  2584   001756                     
  2585                           ;main.c: 259:         PORTCbits.RC2 = 0;
  2586   001756  9482               	bcf	130,2,c	;volatile
  2587                           
  2588                           ;main.c: 260:         _delay((unsigned long)((600)*(16000000/4000000.0)));
  2589   001758  0E04               	movlw	4
  2590   00175A  6E0B               	movwf	??_reproduz_vitoria^0,c
  2591   00175C  0E1C               	movlw	28
  2592   00175E                     u2377:
  2593   00175E  2EE8               	decfsz	wreg,f,c
  2594   001760  D7FE               	bra	u2377
  2595   001762  2E0B               	decfsz	??_reproduz_vitoria^0,f,c
  2596   001764  D7FC               	bra	u2377
  2597   001766  D000               	nop2	
  2598   001768                     
  2599                           ;main.c: 261:     }
  2600   001768  4A0E               	infsnz	reproduz_vitoria@i_820^0,f,c
  2601   00176A  2A0F               	incf	(reproduz_vitoria@i_820+1)^0,f,c
  2602   00176C  BE0F               	btfsc	(reproduz_vitoria@i_820+1)^0,7,c
  2603   00176E  EFC1  F00B         	goto	u1601
  2604   001772  500F               	movf	(reproduz_vitoria@i_820+1)^0,w,c
  2605   001774  E108               	bnz	u1600
  2606   001776  280E               	incf	reproduz_vitoria@i_820^0,w,c
  2607   001778  A0D8               	btfss	status,0,c
  2608   00177A  EFC1  F00B         	goto	u1601
  2609   00177E  EFC3  F00B         	goto	u1600
  2610   001782                     u1601:
  2611   001782  EFA2  F00B         	goto	l152
  2612   001786                     u1600:
  2613   001786                     
  2614                           ;main.c: 262:     PORTDbits.RD1 = 0;
  2615   001786  9283               	bcf	131,1,c	;volatile
  2616                           
  2617                           ;main.c: 264:     PORTDbits.RD2 = 1;
  2618   001788  8483               	bsf	131,2,c	;volatile
  2619   00178A                     
  2620                           ;main.c: 265:     for (int i = 0; i < 255; i++) {
  2621   00178A  0E00               	movlw	0
  2622   00178C  6E11               	movwf	(reproduz_vitoria@i_821+1)^0,c
  2623   00178E  0E00               	movlw	0
  2624   001790  6E10               	movwf	reproduz_vitoria@i_821^0,c
  2625   001792                     l154:
  2626                           
  2627                           ;main.c: 266:         PORTCbits.RC2 = 1;
  2628   001792  8482               	bsf	130,2,c	;volatile
  2629   001794                     
  2630                           ;main.c: 267:         _delay((unsigned long)((500)*(16000000/4000000.0)));
  2631   001794  0E03               	movlw	3
  2632   001796  6E0B               	movwf	??_reproduz_vitoria^0,c
  2633   001798  0E98               	movlw	152
  2634   00179A                     u2387:
  2635   00179A  2EE8               	decfsz	wreg,f,c
  2636   00179C  D7FE               	bra	u2387
  2637   00179E  2E0B               	decfsz	??_reproduz_vitoria^0,f,c
  2638   0017A0  D7FC               	bra	u2387
  2639   0017A2                     
  2640                           ;main.c: 268:         PORTCbits.RC2 = 0;
  2641   0017A2  9482               	bcf	130,2,c	;volatile
  2642                           
  2643                           ;main.c: 269:         _delay((unsigned long)((500)*(16000000/4000000.0)));
  2644   0017A4  0E03               	movlw	3
  2645   0017A6  6E0B               	movwf	??_reproduz_vitoria^0,c
  2646   0017A8  0E98               	movlw	152
  2647   0017AA                     u2397:
  2648   0017AA  2EE8               	decfsz	wreg,f,c
  2649   0017AC  D7FE               	bra	u2397
  2650   0017AE  2E0B               	decfsz	??_reproduz_vitoria^0,f,c
  2651   0017B0  D7FC               	bra	u2397
  2652   0017B2                     
  2653                           ;main.c: 270:     }
  2654   0017B2  4A10               	infsnz	reproduz_vitoria@i_821^0,f,c
  2655   0017B4  2A11               	incf	(reproduz_vitoria@i_821+1)^0,f,c
  2656   0017B6  BE11               	btfsc	(reproduz_vitoria@i_821+1)^0,7,c
  2657   0017B8  EFE6  F00B         	goto	u1611
  2658   0017BC  5011               	movf	(reproduz_vitoria@i_821+1)^0,w,c
  2659   0017BE  E108               	bnz	u1610
  2660   0017C0  2810               	incf	reproduz_vitoria@i_821^0,w,c
  2661   0017C2  A0D8               	btfss	status,0,c
  2662   0017C4  EFE6  F00B         	goto	u1611
  2663   0017C8  EFE8  F00B         	goto	u1610
  2664   0017CC                     u1611:
  2665   0017CC  EFC9  F00B         	goto	l154
  2666   0017D0                     u1610:
  2667   0017D0                     
  2668                           ;main.c: 271:     PORTDbits.RD2 = 0;
  2669   0017D0  9483               	bcf	131,2,c	;volatile
  2670                           
  2671                           ;main.c: 273:     PORTDbits.RD3 = 1;
  2672   0017D2  8683               	bsf	131,3,c	;volatile
  2673   0017D4                     
  2674                           ;main.c: 274:     for (int i = 0; i < 255; i++) {
  2675   0017D4  0E00               	movlw	0
  2676   0017D6  6E13               	movwf	(reproduz_vitoria@i_822+1)^0,c
  2677   0017D8  0E00               	movlw	0
  2678   0017DA  6E12               	movwf	reproduz_vitoria@i_822^0,c
  2679   0017DC                     l156:
  2680                           
  2681                           ;main.c: 275:         PORTCbits.RC2 = 1;
  2682   0017DC  8482               	bsf	130,2,c	;volatile
  2683   0017DE                     
  2684                           ;main.c: 276:         _delay((unsigned long)((400)*(16000000/4000000.0)));
  2685   0017DE  0EE4               	movlw	228
  2686   0017E0                     u2407:
  2687   0017E0  D000               	nop2	
  2688   0017E2  D000               	nop2	
  2689   0017E4  2EE8               	decfsz	wreg,f,c
  2690   0017E6  D7FC               	bra	u2407
  2691   0017E8  D000               	nop2	
  2692   0017EA  D000               	nop2	
  2693   0017EC                     
  2694                           ;main.c: 277:         PORTCbits.RC2 = 0;
  2695   0017EC  9482               	bcf	130,2,c	;volatile
  2696                           
  2697                           ;main.c: 278:         _delay((unsigned long)((400)*(16000000/4000000.0)));
  2698   0017EE  0EE4               	movlw	228
  2699   0017F0                     u2417:
  2700   0017F0  D000               	nop2	
  2701   0017F2  D000               	nop2	
  2702   0017F4  2EE8               	decfsz	wreg,f,c
  2703   0017F6  D7FC               	bra	u2417
  2704   0017F8  D000               	nop2	
  2705   0017FA  D000               	nop2	
  2706   0017FC                     
  2707                           ;main.c: 279:     }
  2708   0017FC  4A12               	infsnz	reproduz_vitoria@i_822^0,f,c
  2709   0017FE  2A13               	incf	(reproduz_vitoria@i_822+1)^0,f,c
  2710   001800  BE13               	btfsc	(reproduz_vitoria@i_822+1)^0,7,c
  2711   001802  EF0B  F00C         	goto	u1621
  2712   001806  5013               	movf	(reproduz_vitoria@i_822+1)^0,w,c
  2713   001808  E108               	bnz	u1620
  2714   00180A  2812               	incf	reproduz_vitoria@i_822^0,w,c
  2715   00180C  A0D8               	btfss	status,0,c
  2716   00180E  EF0B  F00C         	goto	u1621
  2717   001812  EF0D  F00C         	goto	u1620
  2718   001816                     u1621:
  2719   001816  EFEE  F00B         	goto	l156
  2720   00181A                     u1620:
  2721   00181A                     
  2722                           ;main.c: 280:     PORTDbits.RD3 = 0;
  2723   00181A  9683               	bcf	131,3,c	;volatile
  2724   00181C  0012               	return		;funcret
  2725   00181E                     __end_of_reproduz_vitoria:
  2726                           	callstack 0
  2727                           
  2728 ;; *************** function _reproduz_som_led *****************
  2729 ;; Defined at:
  2730 ;;		line 113 in file "main.c"
  2731 ;; Parameters:    Size  Location     Type
  2732 ;;  pos             1    wreg     unsigned char 
  2733 ;; Auto vars:     Size  Location     Type
  2734 ;;  pos             1   12[COMRAM] unsigned char 
  2735 ;;  i               2   19[COMRAM] int 
  2736 ;;  i               2   17[COMRAM] int 
  2737 ;;  i               2   15[COMRAM] int 
  2738 ;;  i               2   13[COMRAM] int 
  2739 ;; Return value:  Size  Location     Type
  2740 ;;                  1    wreg      void 
  2741 ;; Registers used:
  2742 ;;		wreg, status,2, status,0
  2743 ;; Tracked objects:
  2744 ;;		On entry : 0/0
  2745 ;;		On exit  : 0/0
  2746 ;;		Unchanged: 0/0
  2747 ;; Data sizes:     COMRAM   BANK0   BANK1   BANK2   BANK3   BANK4   BANK5
  2748 ;;      Params:         0       0       0       0       0       0       0
  2749 ;;      Locals:         9       0       0       0       0       0       0
  2750 ;;      Temps:          2       0       0       0       0       0       0
  2751 ;;      Totals:        11       0       0       0       0       0       0
  2752 ;;Total ram usage:       11 bytes
  2753 ;; Hardware stack levels used: 1
  2754 ;; Hardware stack levels required when called: 1
  2755 ;; This function calls:
  2756 ;;		Nothing
  2757 ;; This function is called by:
  2758 ;;		_main
  2759 ;; This function uses a non-reentrant model
  2760 ;;
  2761                           
  2762                           	psect	text4
  2763   00159E                     __ptext4:
  2764                           	callstack 0
  2765   00159E                     _reproduz_som_led:
  2766                           	callstack 29
  2767                           
  2768                           ;incstack = 0
  2769                           ;reproduz_som_led@pos stored from wreg
  2770   00159E  6E0D               	movwf	reproduz_som_led@pos^0,c
  2771   0015A0                     
  2772                           ;main.c: 114:     switch (pos) {
  2773   0015A0  EF5A  F00B         	goto	l2171
  2774   0015A4                     l2121:
  2775                           
  2776                           ;main.c: 116:             for (int i = 0; i < 255; i++) {
  2777   0015A4  0E00               	movlw	0
  2778   0015A6  6E0F               	movwf	(reproduz_som_led@i+1)^0,c
  2779   0015A8  0E00               	movlw	0
  2780   0015AA  6E0E               	movwf	reproduz_som_led@i^0,c
  2781   0015AC                     l104:
  2782                           
  2783                           ;main.c: 117:                 PORTCbits.RC2 = 1;
  2784   0015AC  8482               	bsf	130,2,c	;volatile
  2785   0015AE                     
  2786                           ;main.c: 118:                 _delay((unsigned long)((500)*(16000000/4000000.0)));
  2787   0015AE  0E03               	movlw	3
  2788   0015B0  6E0B               	movwf	??_reproduz_som_led^0,c
  2789   0015B2  0E98               	movlw	152
  2790   0015B4                     u2427:
  2791   0015B4  2EE8               	decfsz	wreg,f,c
  2792   0015B6  D7FE               	bra	u2427
  2793   0015B8  2E0B               	decfsz	??_reproduz_som_led^0,f,c
  2794   0015BA  D7FC               	bra	u2427
  2795   0015BC                     
  2796                           ;main.c: 119:                 PORTCbits.RC2 = 0;
  2797   0015BC  9482               	bcf	130,2,c	;volatile
  2798                           
  2799                           ;main.c: 120:                 _delay((unsigned long)((500)*(16000000/4000000.0)));
  2800   0015BE  0E03               	movlw	3
  2801   0015C0  6E0B               	movwf	??_reproduz_som_led^0,c
  2802   0015C2  0E98               	movlw	152
  2803   0015C4                     u2437:
  2804   0015C4  2EE8               	decfsz	wreg,f,c
  2805   0015C6  D7FE               	bra	u2437
  2806   0015C8  2E0B               	decfsz	??_reproduz_som_led^0,f,c
  2807   0015CA  D7FC               	bra	u2437
  2808   0015CC                     
  2809                           ;main.c: 121:             }
  2810   0015CC  4A0E               	infsnz	reproduz_som_led@i^0,f,c
  2811   0015CE  2A0F               	incf	(reproduz_som_led@i+1)^0,f,c
  2812   0015D0  BE0F               	btfsc	(reproduz_som_led@i+1)^0,7,c
  2813   0015D2  EFF3  F00A         	goto	u1501
  2814   0015D6  500F               	movf	(reproduz_som_led@i+1)^0,w,c
  2815   0015D8  E108               	bnz	u1500
  2816   0015DA  280E               	incf	reproduz_som_led@i^0,w,c
  2817   0015DC  A0D8               	btfss	status,0,c
  2818   0015DE  EFF3  F00A         	goto	u1501
  2819   0015E2  EFF5  F00A         	goto	u1500
  2820   0015E6                     u1501:
  2821   0015E6  EFD6  F00A         	goto	l104
  2822   0015EA                     u1500:
  2823   0015EA  EF77  F00B         	goto	l116
  2824   0015EE                     l2133:
  2825                           
  2826                           ;main.c: 124:             for (int i = 0; i < 255; i++) {
  2827   0015EE  0E00               	movlw	0
  2828   0015F0  6E11               	movwf	(reproduz_som_led@i_736+1)^0,c
  2829   0015F2  0E00               	movlw	0
  2830   0015F4  6E10               	movwf	reproduz_som_led@i_736^0,c
  2831   0015F6                     l108:
  2832                           
  2833                           ;main.c: 125:                 PORTCbits.RC2 = 1;
  2834   0015F6  8482               	bsf	130,2,c	;volatile
  2835   0015F8                     
  2836                           ;main.c: 126:                 _delay((unsigned long)((400)*(16000000/4000000.0)));
  2837   0015F8  0EE4               	movlw	228
  2838   0015FA                     u2447:
  2839   0015FA  D000               	nop2	
  2840   0015FC  D000               	nop2	
  2841   0015FE  2EE8               	decfsz	wreg,f,c
  2842   001600  D7FC               	bra	u2447
  2843   001602  D000               	nop2	
  2844   001604  D000               	nop2	
  2845   001606                     
  2846                           ;main.c: 127:                 PORTCbits.RC2 = 0;
  2847   001606  9482               	bcf	130,2,c	;volatile
  2848                           
  2849                           ;main.c: 128:                 _delay((unsigned long)((400)*(16000000/4000000.0)));
  2850   001608  0EE4               	movlw	228
  2851   00160A                     u2457:
  2852   00160A  D000               	nop2	
  2853   00160C  D000               	nop2	
  2854   00160E  2EE8               	decfsz	wreg,f,c
  2855   001610  D7FC               	bra	u2457
  2856   001612  D000               	nop2	
  2857   001614  D000               	nop2	
  2858   001616                     
  2859                           ;main.c: 129:             }
  2860   001616  4A10               	infsnz	reproduz_som_led@i_736^0,f,c
  2861   001618  2A11               	incf	(reproduz_som_led@i_736+1)^0,f,c
  2862   00161A  BE11               	btfsc	(reproduz_som_led@i_736+1)^0,7,c
  2863   00161C  EF18  F00B         	goto	u1511
  2864   001620  5011               	movf	(reproduz_som_led@i_736+1)^0,w,c
  2865   001622  E108               	bnz	u1510
  2866   001624  2810               	incf	reproduz_som_led@i_736^0,w,c
  2867   001626  A0D8               	btfss	status,0,c
  2868   001628  EF18  F00B         	goto	u1511
  2869   00162C  EF1A  F00B         	goto	u1510
  2870   001630                     u1511:
  2871   001630  EFFB  F00A         	goto	l108
  2872   001634                     u1510:
  2873   001634  EF77  F00B         	goto	l116
  2874   001638                     l2145:
  2875                           
  2876                           ;main.c: 132:             for (int i = 0; i < 255; i++) {
  2877   001638  0E00               	movlw	0
  2878   00163A  6E13               	movwf	(reproduz_som_led@i_737+1)^0,c
  2879   00163C  0E00               	movlw	0
  2880   00163E  6E12               	movwf	reproduz_som_led@i_737^0,c
  2881   001640                     l111:
  2882                           
  2883                           ;main.c: 133:                 PORTCbits.RC2 = 1;
  2884   001640  8482               	bsf	130,2,c	;volatile
  2885   001642                     
  2886                           ;main.c: 134:                 _delay((unsigned long)((300)*(16000000/4000000.0)));
  2887   001642  0EF0               	movlw	240
  2888   001644                     u2467:
  2889   001644  D000               	nop2	
  2890   001646  2EE8               	decfsz	wreg,f,c
  2891   001648  D7FD               	bra	u2467
  2892   00164A                     
  2893                           ;main.c: 135:                 PORTCbits.RC2 = 0;
  2894   00164A  9482               	bcf	130,2,c	;volatile
  2895                           
  2896                           ;main.c: 136:                 _delay((unsigned long)((300)*(16000000/4000000.0)));
  2897   00164C  0EF0               	movlw	240
  2898   00164E                     u2477:
  2899   00164E  D000               	nop2	
  2900   001650  2EE8               	decfsz	wreg,f,c
  2901   001652  D7FD               	bra	u2477
  2902   001654                     
  2903                           ;main.c: 137:             }
  2904   001654  4A12               	infsnz	reproduz_som_led@i_737^0,f,c
  2905   001656  2A13               	incf	(reproduz_som_led@i_737+1)^0,f,c
  2906   001658  BE13               	btfsc	(reproduz_som_led@i_737+1)^0,7,c
  2907   00165A  EF37  F00B         	goto	u1521
  2908   00165E  5013               	movf	(reproduz_som_led@i_737+1)^0,w,c
  2909   001660  E108               	bnz	u1520
  2910   001662  2812               	incf	reproduz_som_led@i_737^0,w,c
  2911   001664  A0D8               	btfss	status,0,c
  2912   001666  EF37  F00B         	goto	u1521
  2913   00166A  EF39  F00B         	goto	u1520
  2914   00166E                     u1521:
  2915   00166E  EF20  F00B         	goto	l111
  2916   001672                     u1520:
  2917   001672  EF77  F00B         	goto	l116
  2918   001676                     l2157:
  2919                           
  2920                           ;main.c: 140:             for (int i = 0; i < 255; i++) {
  2921   001676  0E00               	movlw	0
  2922   001678  6E15               	movwf	(reproduz_som_led@i_738+1)^0,c
  2923   00167A  0E00               	movlw	0
  2924   00167C  6E14               	movwf	reproduz_som_led@i_738^0,c
  2925   00167E                     l114:
  2926                           
  2927                           ;main.c: 141:                 PORTCbits.RC2 = 1;
  2928   00167E  8482               	bsf	130,2,c	;volatile
  2929   001680                     
  2930                           ;main.c: 142:                 _delay((unsigned long)((200)*(16000000/4000000.0)));
  2931   001680  0EA0               	movlw	160
  2932   001682                     u2487:
  2933   001682  D000               	nop2	
  2934   001684  2EE8               	decfsz	wreg,f,c
  2935   001686  D7FD               	bra	u2487
  2936   001688                     
  2937                           ;main.c: 143:                 PORTCbits.RC2 = 0;
  2938   001688  9482               	bcf	130,2,c	;volatile
  2939                           
  2940                           ;main.c: 144:                 _delay((unsigned long)((200)*(16000000/4000000.0)));
  2941   00168A  0EA0               	movlw	160
  2942   00168C                     u2497:
  2943   00168C  D000               	nop2	
  2944   00168E  2EE8               	decfsz	wreg,f,c
  2945   001690  D7FD               	bra	u2497
  2946   001692                     
  2947                           ;main.c: 145:             }
  2948   001692  4A14               	infsnz	reproduz_som_led@i_738^0,f,c
  2949   001694  2A15               	incf	(reproduz_som_led@i_738+1)^0,f,c
  2950   001696  BE15               	btfsc	(reproduz_som_led@i_738+1)^0,7,c
  2951   001698  EF56  F00B         	goto	u1531
  2952   00169C  5015               	movf	(reproduz_som_led@i_738+1)^0,w,c
  2953   00169E  E108               	bnz	u1530
  2954   0016A0  2814               	incf	reproduz_som_led@i_738^0,w,c
  2955   0016A2  A0D8               	btfss	status,0,c
  2956   0016A4  EF56  F00B         	goto	u1531
  2957   0016A8  EF58  F00B         	goto	u1530
  2958   0016AC                     u1531:
  2959   0016AC  EF3F  F00B         	goto	l114
  2960   0016B0                     u1530:
  2961   0016B0  EF77  F00B         	goto	l116
  2962   0016B4                     l2171:
  2963   0016B4  500D               	movf	reproduz_som_led@pos^0,w,c
  2964   0016B6  6E0B               	movwf	??_reproduz_som_led^0,c
  2965   0016B8  6A0C               	clrf	(??_reproduz_som_led+1)^0,c
  2966                           
  2967                           ; Switch on 2 bytes has been partitioned into a top level switch of size 1, and 1 sub-sw
      +                          itches
  2968                           ; Switch size 1, requested type "simple"
  2969                           ; Number of cases is 1, Range of values is 0 to 0
  2970                           ; switch strategies available:
  2971                           ; Name         Instructions Cycles
  2972                           ; simple_byte            4     3 (average)
  2973                           ;	Chosen strategy is simple_byte
  2974   0016BA  500C               	movf	(??_reproduz_som_led+1)^0,w,c
  2975   0016BC  0A00               	xorlw	0	; case 0
  2976   0016BE  B4D8               	btfsc	status,2,c
  2977   0016C0  EF64  F00B         	goto	l2771
  2978   0016C4  EF77  F00B         	goto	l116
  2979   0016C8                     l2771:
  2980                           
  2981                           ; Switch size 1, requested type "simple"
  2982                           ; Number of cases is 4, Range of values is 1 to 4
  2983                           ; switch strategies available:
  2984                           ; Name         Instructions Cycles
  2985                           ; simple_byte           13     7 (average)
  2986                           ;	Chosen strategy is simple_byte
  2987   0016C8  500B               	movf	??_reproduz_som_led^0,w,c
  2988   0016CA  0A01               	xorlw	1	; case 1
  2989   0016CC  B4D8               	btfsc	status,2,c
  2990   0016CE  EFD2  F00A         	goto	l2121
  2991   0016D2  0A03               	xorlw	3	; case 2
  2992   0016D4  B4D8               	btfsc	status,2,c
  2993   0016D6  EFF7  F00A         	goto	l2133
  2994   0016DA  0A01               	xorlw	1	; case 3
  2995   0016DC  B4D8               	btfsc	status,2,c
  2996   0016DE  EF1C  F00B         	goto	l2145
  2997   0016E2  0A07               	xorlw	7	; case 4
  2998   0016E4  B4D8               	btfsc	status,2,c
  2999   0016E6  EF3B  F00B         	goto	l2157
  3000   0016EA  EF77  F00B         	goto	l116
  3001   0016EE                     l116:
  3002   0016EE  0012               	return		;funcret
  3003   0016F0                     __end_of_reproduz_som_led:
  3004                           	callstack 0
  3005                           
  3006 ;; *************** function _reproduz_derrota *****************
  3007 ;; Defined at:
  3008 ;;		line 284 in file "main.c"
  3009 ;; Parameters:    Size  Location     Type
  3010 ;;		None
  3011 ;; Auto vars:     Size  Location     Type
  3012 ;;  i               2   16[COMRAM] int 
  3013 ;;  i               2   14[COMRAM] int 
  3014 ;;  i               2   12[COMRAM] int 
  3015 ;; Return value:  Size  Location     Type
  3016 ;;                  1    wreg      void 
  3017 ;; Registers used:
  3018 ;;		wreg, status,2, status,0
  3019 ;; Tracked objects:
  3020 ;;		On entry : 0/0
  3021 ;;		On exit  : 0/0
  3022 ;;		Unchanged: 0/0
  3023 ;; Data sizes:     COMRAM   BANK0   BANK1   BANK2   BANK3   BANK4   BANK5
  3024 ;;      Params:         0       0       0       0       0       0       0
  3025 ;;      Locals:         6       0       0       0       0       0       0
  3026 ;;      Temps:          2       0       0       0       0       0       0
  3027 ;;      Totals:         8       0       0       0       0       0       0
  3028 ;;Total ram usage:        8 bytes
  3029 ;; Hardware stack levels used: 1
  3030 ;; Hardware stack levels required when called: 1
  3031 ;; This function calls:
  3032 ;;		Nothing
  3033 ;; This function is called by:
  3034 ;;		_main
  3035 ;; This function uses a non-reentrant model
  3036 ;;
  3037                           
  3038                           	psect	text5
  3039   001446                     __ptext5:
  3040                           	callstack 0
  3041   001446                     _reproduz_derrota:
  3042                           	callstack 29
  3043   001446                     
  3044                           ;main.c: 285:     PORTDbits.RD0 = 1;
  3045   001446  8083               	bsf	131,0,c	;volatile
  3046                           
  3047                           ;main.c: 286:     PORTDbits.RD1 = 1;
  3048   001448  8283               	bsf	131,1,c	;volatile
  3049                           
  3050                           ;main.c: 287:     PORTDbits.RD2 = 1;
  3051   00144A  8483               	bsf	131,2,c	;volatile
  3052                           
  3053                           ;main.c: 288:     PORTDbits.RD3 = 1;
  3054   00144C  8683               	bsf	131,3,c	;volatile
  3055   00144E                     
  3056                           ;main.c: 289:     for (int i = 0; i < 255; i++) {
  3057   00144E  0E00               	movlw	0
  3058   001450  6E0E               	movwf	(reproduz_derrota@i+1)^0,c
  3059   001452  0E00               	movlw	0
  3060   001454  6E0D               	movwf	reproduz_derrota@i^0,c
  3061   001456                     l161:
  3062                           
  3063                           ;main.c: 290:         PORTCbits.RC2 = 1;
  3064   001456  8482               	bsf	130,2,c	;volatile
  3065   001458                     
  3066                           ;main.c: 291:         _delay((unsigned long)((600)*(16000000/4000000.0)));
  3067   001458  0E04               	movlw	4
  3068   00145A  6E0B               	movwf	??_reproduz_derrota^0,c
  3069   00145C  0E1C               	movlw	28
  3070   00145E                     u2507:
  3071   00145E  2EE8               	decfsz	wreg,f,c
  3072   001460  D7FE               	bra	u2507
  3073   001462  2E0B               	decfsz	??_reproduz_derrota^0,f,c
  3074   001464  D7FC               	bra	u2507
  3075   001466  D000               	nop2	
  3076   001468                     
  3077                           ;main.c: 292:         PORTCbits.RC2 = 0;
  3078   001468  9482               	bcf	130,2,c	;volatile
  3079                           
  3080                           ;main.c: 293:         _delay((unsigned long)((600)*(16000000/4000000.0)));
  3081   00146A  0E04               	movlw	4
  3082   00146C  6E0B               	movwf	??_reproduz_derrota^0,c
  3083   00146E  0E1C               	movlw	28
  3084   001470                     u2517:
  3085   001470  2EE8               	decfsz	wreg,f,c
  3086   001472  D7FE               	bra	u2517
  3087   001474  2E0B               	decfsz	??_reproduz_derrota^0,f,c
  3088   001476  D7FC               	bra	u2517
  3089   001478  D000               	nop2	
  3090   00147A                     
  3091                           ;main.c: 294:     }
  3092   00147A  4A0D               	infsnz	reproduz_derrota@i^0,f,c
  3093   00147C  2A0E               	incf	(reproduz_derrota@i+1)^0,f,c
  3094   00147E  BE0E               	btfsc	(reproduz_derrota@i+1)^0,7,c
  3095   001480  EF4A  F00A         	goto	u1631
  3096   001484  500E               	movf	(reproduz_derrota@i+1)^0,w,c
  3097   001486  E108               	bnz	u1630
  3098   001488  280D               	incf	reproduz_derrota@i^0,w,c
  3099   00148A  A0D8               	btfss	status,0,c
  3100   00148C  EF4A  F00A         	goto	u1631
  3101   001490  EF4C  F00A         	goto	u1630
  3102   001494                     u1631:
  3103   001494  EF2B  F00A         	goto	l161
  3104   001498                     u1630:
  3105   001498                     
  3106                           ;main.c: 295:     PORTDbits.RD0 = 0;
  3107   001498  9083               	bcf	131,0,c	;volatile
  3108                           
  3109                           ;main.c: 296:     PORTDbits.RD1 = 0;
  3110   00149A  9283               	bcf	131,1,c	;volatile
  3111                           
  3112                           ;main.c: 297:     PORTDbits.RD2 = 0;
  3113   00149C  9483               	bcf	131,2,c	;volatile
  3114                           
  3115                           ;main.c: 298:     PORTDbits.RD3 = 0;
  3116   00149E  9683               	bcf	131,3,c	;volatile
  3117   0014A0                     
  3118                           ;main.c: 299:     _delay((unsigned long)((200)*(16000000/4000.0)));
  3119   0014A0  0E05               	movlw	5
  3120   0014A2  6E0C               	movwf	(??_reproduz_derrota+1)^0,c
  3121   0014A4  0E0F               	movlw	15
  3122   0014A6  6E0B               	movwf	??_reproduz_derrota^0,c
  3123   0014A8  0EF1               	movlw	241
  3124   0014AA                     u2527:
  3125   0014AA  2EE8               	decfsz	wreg,f,c
  3126   0014AC  D7FE               	bra	u2527
  3127   0014AE  2E0B               	decfsz	??_reproduz_derrota^0,f,c
  3128   0014B0  D7FC               	bra	u2527
  3129   0014B2  2E0C               	decfsz	(??_reproduz_derrota+1)^0,f,c
  3130   0014B4  D7FA               	bra	u2527
  3131   0014B6  F000               	nop	
  3132   0014B8                     
  3133                           ;main.c: 300:     PORTDbits.RD0 = 1;
  3134   0014B8  8083               	bsf	131,0,c	;volatile
  3135   0014BA                     
  3136                           ;main.c: 301:     PORTDbits.RD1 = 1;
  3137   0014BA  8283               	bsf	131,1,c	;volatile
  3138   0014BC                     
  3139                           ;main.c: 302:     PORTDbits.RD2 = 1;
  3140   0014BC  8483               	bsf	131,2,c	;volatile
  3141   0014BE                     
  3142                           ;main.c: 303:     PORTDbits.RD3 = 1;
  3143   0014BE  8683               	bsf	131,3,c	;volatile
  3144   0014C0                     
  3145                           ;main.c: 304:     for (int i = 0; i < 255; i++) {
  3146   0014C0  0E00               	movlw	0
  3147   0014C2  6E10               	movwf	(reproduz_derrota@i_825+1)^0,c
  3148   0014C4  0E00               	movlw	0
  3149   0014C6  6E0F               	movwf	reproduz_derrota@i_825^0,c
  3150   0014C8                     l163:
  3151                           
  3152                           ;main.c: 305:         PORTCbits.RC2 = 1;
  3153   0014C8  8482               	bsf	130,2,c	;volatile
  3154   0014CA                     
  3155                           ;main.c: 306:         _delay((unsigned long)((800)*(16000000/4000000.0)));
  3156   0014CA  0E05               	movlw	5
  3157   0014CC  6E0B               	movwf	??_reproduz_derrota^0,c
  3158   0014CE  0E26               	movlw	38
  3159   0014D0                     u2537:
  3160   0014D0  2EE8               	decfsz	wreg,f,c
  3161   0014D2  D7FE               	bra	u2537
  3162   0014D4  2E0B               	decfsz	??_reproduz_derrota^0,f,c
  3163   0014D6  D7FC               	bra	u2537
  3164   0014D8  D000               	nop2	
  3165   0014DA                     
  3166                           ;main.c: 307:         PORTCbits.RC2 = 0;
  3167   0014DA  9482               	bcf	130,2,c	;volatile
  3168                           
  3169                           ;main.c: 308:         _delay((unsigned long)((800)*(16000000/4000000.0)));
  3170   0014DC  0E05               	movlw	5
  3171   0014DE  6E0B               	movwf	??_reproduz_derrota^0,c
  3172   0014E0  0E26               	movlw	38
  3173   0014E2                     u2547:
  3174   0014E2  2EE8               	decfsz	wreg,f,c
  3175   0014E4  D7FE               	bra	u2547
  3176   0014E6  2E0B               	decfsz	??_reproduz_derrota^0,f,c
  3177   0014E8  D7FC               	bra	u2547
  3178   0014EA  D000               	nop2	
  3179   0014EC                     
  3180                           ;main.c: 309:     }
  3181   0014EC  4A0F               	infsnz	reproduz_derrota@i_825^0,f,c
  3182   0014EE  2A10               	incf	(reproduz_derrota@i_825+1)^0,f,c
  3183   0014F0  BE10               	btfsc	(reproduz_derrota@i_825+1)^0,7,c
  3184   0014F2  EF83  F00A         	goto	u1641
  3185   0014F6  5010               	movf	(reproduz_derrota@i_825+1)^0,w,c
  3186   0014F8  E108               	bnz	u1640
  3187   0014FA  280F               	incf	reproduz_derrota@i_825^0,w,c
  3188   0014FC  A0D8               	btfss	status,0,c
  3189   0014FE  EF83  F00A         	goto	u1641
  3190   001502  EF85  F00A         	goto	u1640
  3191   001506                     u1641:
  3192   001506  EF64  F00A         	goto	l163
  3193   00150A                     u1640:
  3194   00150A                     
  3195                           ;main.c: 310:     PORTDbits.RD0 = 0;
  3196   00150A  9083               	bcf	131,0,c	;volatile
  3197                           
  3198                           ;main.c: 311:     PORTDbits.RD1 = 0;
  3199   00150C  9283               	bcf	131,1,c	;volatile
  3200                           
  3201                           ;main.c: 312:     PORTDbits.RD2 = 0;
  3202   00150E  9483               	bcf	131,2,c	;volatile
  3203                           
  3204                           ;main.c: 313:     PORTDbits.RD3 = 0;
  3205   001510  9683               	bcf	131,3,c	;volatile
  3206   001512                     
  3207                           ;main.c: 314:     _delay((unsigned long)((200)*(16000000/4000.0)));
  3208   001512  0E05               	movlw	5
  3209   001514  6E0C               	movwf	(??_reproduz_derrota+1)^0,c
  3210   001516  0E0F               	movlw	15
  3211   001518  6E0B               	movwf	??_reproduz_derrota^0,c
  3212   00151A  0EF1               	movlw	241
  3213   00151C                     u2557:
  3214   00151C  2EE8               	decfsz	wreg,f,c
  3215   00151E  D7FE               	bra	u2557
  3216   001520  2E0B               	decfsz	??_reproduz_derrota^0,f,c
  3217   001522  D7FC               	bra	u2557
  3218   001524  2E0C               	decfsz	(??_reproduz_derrota+1)^0,f,c
  3219   001526  D7FA               	bra	u2557
  3220   001528  F000               	nop	
  3221   00152A                     
  3222                           ;main.c: 315:     PORTDbits.RD0 = 1;
  3223   00152A  8083               	bsf	131,0,c	;volatile
  3224   00152C                     
  3225                           ;main.c: 316:     PORTDbits.RD1 = 1;
  3226   00152C  8283               	bsf	131,1,c	;volatile
  3227   00152E                     
  3228                           ;main.c: 317:     PORTDbits.RD2 = 1;
  3229   00152E  8483               	bsf	131,2,c	;volatile
  3230   001530                     
  3231                           ;main.c: 318:     PORTDbits.RD3 = 1;
  3232   001530  8683               	bsf	131,3,c	;volatile
  3233   001532                     
  3234                           ;main.c: 319:     for (int i = 0; i < 255; i++) {
  3235   001532  0E00               	movlw	0
  3236   001534  6E12               	movwf	(reproduz_derrota@i_826+1)^0,c
  3237   001536  0E00               	movlw	0
  3238   001538  6E11               	movwf	reproduz_derrota@i_826^0,c
  3239   00153A                     l165:
  3240                           
  3241                           ;main.c: 320:         PORTCbits.RC2 = 1;
  3242   00153A  8482               	bsf	130,2,c	;volatile
  3243   00153C                     
  3244                           ;main.c: 321:         _delay((unsigned long)((1000)*(16000000/4000000.0)));
  3245   00153C  0E06               	movlw	6
  3246   00153E  6E0B               	movwf	??_reproduz_derrota^0,c
  3247   001540  0E30               	movlw	48
  3248   001542                     u2567:
  3249   001542  2EE8               	decfsz	wreg,f,c
  3250   001544  D7FE               	bra	u2567
  3251   001546  2E0B               	decfsz	??_reproduz_derrota^0,f,c
  3252   001548  D7FC               	bra	u2567
  3253   00154A  D000               	nop2	
  3254   00154C                     
  3255                           ;main.c: 322:         PORTCbits.RC2 = 0;
  3256   00154C  9482               	bcf	130,2,c	;volatile
  3257                           
  3258                           ;main.c: 323:         _delay((unsigned long)((1000)*(16000000/4000000.0)));
  3259   00154E  0E06               	movlw	6
  3260   001550  6E0B               	movwf	??_reproduz_derrota^0,c
  3261   001552  0E30               	movlw	48
  3262   001554                     u2577:
  3263   001554  2EE8               	decfsz	wreg,f,c
  3264   001556  D7FE               	bra	u2577
  3265   001558  2E0B               	decfsz	??_reproduz_derrota^0,f,c
  3266   00155A  D7FC               	bra	u2577
  3267   00155C  D000               	nop2	
  3268   00155E                     
  3269                           ;main.c: 324:     }
  3270   00155E  4A11               	infsnz	reproduz_derrota@i_826^0,f,c
  3271   001560  2A12               	incf	(reproduz_derrota@i_826+1)^0,f,c
  3272   001562  BE12               	btfsc	(reproduz_derrota@i_826+1)^0,7,c
  3273   001564  EFBC  F00A         	goto	u1651
  3274   001568  5012               	movf	(reproduz_derrota@i_826+1)^0,w,c
  3275   00156A  E108               	bnz	u1650
  3276   00156C  2811               	incf	reproduz_derrota@i_826^0,w,c
  3277   00156E  A0D8               	btfss	status,0,c
  3278   001570  EFBC  F00A         	goto	u1651
  3279   001574  EFBE  F00A         	goto	u1650
  3280   001578                     u1651:
  3281   001578  EF9D  F00A         	goto	l165
  3282   00157C                     u1650:
  3283   00157C                     
  3284                           ;main.c: 325:     PORTDbits.RD0 = 0;
  3285   00157C  9083               	bcf	131,0,c	;volatile
  3286                           
  3287                           ;main.c: 326:     PORTDbits.RD1 = 0;
  3288   00157E  9283               	bcf	131,1,c	;volatile
  3289                           
  3290                           ;main.c: 327:     PORTDbits.RD2 = 0;
  3291   001580  9483               	bcf	131,2,c	;volatile
  3292                           
  3293                           ;main.c: 328:     PORTDbits.RD3 = 0;
  3294   001582  9683               	bcf	131,3,c	;volatile
  3295   001584                     
  3296                           ;main.c: 329:     _delay((unsigned long)((200)*(16000000/4000.0)));
  3297   001584  0E05               	movlw	5
  3298   001586  6E0C               	movwf	(??_reproduz_derrota+1)^0,c
  3299   001588  0E0F               	movlw	15
  3300   00158A  6E0B               	movwf	??_reproduz_derrota^0,c
  3301   00158C  0EF1               	movlw	241
  3302   00158E                     u2587:
  3303   00158E  2EE8               	decfsz	wreg,f,c
  3304   001590  D7FE               	bra	u2587
  3305   001592  2E0B               	decfsz	??_reproduz_derrota^0,f,c
  3306   001594  D7FC               	bra	u2587
  3307   001596  2E0C               	decfsz	(??_reproduz_derrota+1)^0,f,c
  3308   001598  D7FA               	bra	u2587
  3309   00159A  F000               	nop	
  3310   00159C  0012               	return		;funcret
  3311   00159E                     __end_of_reproduz_derrota:
  3312                           	callstack 0
  3313                           
  3314 ;; *************** function _rand *****************
  3315 ;; Defined at:
  3316 ;;		line 11 in file "C:\Program Files\Microchip\xc8\v2.41\pic\sources\c99\common\rand.c"
  3317 ;; Parameters:    Size  Location     Type
  3318 ;;		None
  3319 ;; Auto vars:     Size  Location     Type
  3320 ;;		None
  3321 ;; Return value:  Size  Location     Type
  3322 ;;                  2   22[COMRAM] int 
  3323 ;; Registers used:
  3324 ;;		wreg, status,2, status,0, cstack
  3325 ;; Tracked objects:
  3326 ;;		On entry : 0/0
  3327 ;;		On exit  : 0/0
  3328 ;;		Unchanged: 0/0
  3329 ;; Data sizes:     COMRAM   BANK0   BANK1   BANK2   BANK3   BANK4   BANK5
  3330 ;;      Params:         2       0       0       0       0       0       0
  3331 ;;      Locals:         0       0       0       0       0       0       0
  3332 ;;      Temps:          4       0       0       0       0       0       0
  3333 ;;      Totals:         6       0       0       0       0       0       0
  3334 ;;Total ram usage:        6 bytes
  3335 ;; Hardware stack levels used: 1
  3336 ;; Hardware stack levels required when called: 2
  3337 ;; This function calls:
  3338 ;;		___lmul
  3339 ;; This function is called by:
  3340 ;;		_main
  3341 ;;		_generate_random_sequence_easy
  3342 ;; This function uses a non-reentrant model
  3343 ;;
  3344                           
  3345                           	psect	text6
  3346   001C72                     __ptext6:
  3347                           	callstack 0
  3348   001C72                     _rand:
  3349                           	callstack 28
  3350   001C72  C06D  F00B         	movff	_seed,___lmul@multiplier
  3351   001C76  C06E  F00C         	movff	_seed+1,___lmul@multiplier+1
  3352   001C7A  C06F  F00D         	movff	_seed+2,___lmul@multiplier+2
  3353   001C7E  C070  F00E         	movff	_seed+3,___lmul@multiplier+3
  3354   001C82  0E2D               	movlw	45
  3355   001C84  6E0F               	movwf	___lmul@multiplicand^0,c
  3356   001C86  0E7F               	movlw	127
  3357   001C88  6E10               	movwf	(___lmul@multiplicand+1)^0,c
  3358   001C8A  0E95               	movlw	149
  3359   001C8C  6E11               	movwf	(___lmul@multiplicand+2)^0,c
  3360   001C8E  0E4C               	movlw	76
  3361   001C90  6E12               	movwf	(___lmul@multiplicand+3)^0,c
  3362   001C92  EC6F  F00E         	call	___lmul	;wreg free
  3363   001C96  0E01               	movlw	1
  3364   001C98  240B               	addwf	?___lmul^0,w,c
  3365   001C9A  6E6D               	movwf	_seed^0,c
  3366   001C9C  0E00               	movlw	0
  3367   001C9E  200C               	addwfc	(?___lmul+1)^0,w,c
  3368   001CA0  6E6E               	movwf	(_seed+1)^0,c
  3369   001CA2  0E00               	movlw	0
  3370   001CA4  200D               	addwfc	(?___lmul+2)^0,w,c
  3371   001CA6  6E6F               	movwf	(_seed+2)^0,c
  3372   001CA8  0E00               	movlw	0
  3373   001CAA  200E               	addwfc	(?___lmul+3)^0,w,c
  3374   001CAC  6E70               	movwf	(_seed+3)^0,c
  3375   001CAE  C06D  F019         	movff	_seed,??_rand
  3376   001CB2  C06E  F01A         	movff	_seed+1,??_rand+1
  3377   001CB6  C06F  F01B         	movff	_seed+2,??_rand+2
  3378   001CBA  C070  F01C         	movff	_seed+3,??_rand+3
  3379   001CBE  0E12               	movlw	18
  3380   001CC0  EF67  F00E         	goto	u1580
  3381   001CC4                     u1585:
  3382   001CC4  90D8               	bcf	status,0,c
  3383   001CC6  321C               	rrcf	(??_rand+3)^0,f,c
  3384   001CC8  321B               	rrcf	(??_rand+2)^0,f,c
  3385   001CCA  321A               	rrcf	(??_rand+1)^0,f,c
  3386   001CCC  3219               	rrcf	??_rand^0,f,c
  3387   001CCE                     u1580:
  3388   001CCE  2EE8               	decfsz	wreg,f,c
  3389   001CD0  EF62  F00E         	goto	u1585
  3390   001CD4  C019  F017         	movff	??_rand,?_rand
  3391   001CD8  C01A  F018         	movff	??_rand+1,?_rand+1
  3392   001CDC  0012               	return		;funcret
  3393   001CDE                     __end_of_rand:
  3394                           	callstack 0
  3395                           
  3396 ;; *************** function ___lmul *****************
  3397 ;; Defined at:
  3398 ;;		line 15 in file "C:\Program Files\Microchip\xc8\v2.41\pic\sources\c99\common\Umul32.c"
  3399 ;; Parameters:    Size  Location     Type
  3400 ;;  multiplier      4   10[COMRAM] unsigned long 
  3401 ;;  multiplicand    4   14[COMRAM] unsigned long 
  3402 ;; Auto vars:     Size  Location     Type
  3403 ;;  product         4   18[COMRAM] unsigned long 
  3404 ;; Return value:  Size  Location     Type
  3405 ;;                  4   10[COMRAM] unsigned long 
  3406 ;; Registers used:
  3407 ;;		wreg, status,2, status,0
  3408 ;; Tracked objects:
  3409 ;;		On entry : 0/0
  3410 ;;		On exit  : 0/0
  3411 ;;		Unchanged: 0/0
  3412 ;; Data sizes:     COMRAM   BANK0   BANK1   BANK2   BANK3   BANK4   BANK5
  3413 ;;      Params:         8       0       0       0       0       0       0
  3414 ;;      Locals:         4       0       0       0       0       0       0
  3415 ;;      Temps:          0       0       0       0       0       0       0
  3416 ;;      Totals:        12       0       0       0       0       0       0
  3417 ;;Total ram usage:       12 bytes
  3418 ;; Hardware stack levels used: 1
  3419 ;; Hardware stack levels required when called: 1
  3420 ;; This function calls:
  3421 ;;		Nothing
  3422 ;; This function is called by:
  3423 ;;		_rand
  3424 ;; This function uses a non-reentrant model
  3425 ;;
  3426                           
  3427                           	psect	text7
  3428   001CDE                     __ptext7:
  3429                           	callstack 0
  3430   001CDE                     ___lmul:
  3431                           	callstack 28
  3432   001CDE  0E00               	movlw	0
  3433   001CE0  6E13               	movwf	___lmul@product^0,c
  3434   001CE2  0E00               	movlw	0
  3435   001CE4  6E14               	movwf	(___lmul@product+1)^0,c
  3436   001CE6  0E00               	movlw	0
  3437   001CE8  6E15               	movwf	(___lmul@product+2)^0,c
  3438   001CEA  0E00               	movlw	0
  3439   001CEC  6E16               	movwf	(___lmul@product+3)^0,c
  3440   001CEE                     l2099:
  3441   001CEE  A00B               	btfss	___lmul@multiplier^0,0,c
  3442   001CF0  EF7C  F00E         	goto	u1471
  3443   001CF4  EF7E  F00E         	goto	u1470
  3444   001CF8                     u1471:
  3445   001CF8  EF86  F00E         	goto	l2103
  3446   001CFC                     u1470:
  3447   001CFC  500F               	movf	___lmul@multiplicand^0,w,c
  3448   001CFE  2613               	addwf	___lmul@product^0,f,c
  3449   001D00  5010               	movf	(___lmul@multiplicand+1)^0,w,c
  3450   001D02  2214               	addwfc	(___lmul@product+1)^0,f,c
  3451   001D04  5011               	movf	(___lmul@multiplicand+2)^0,w,c
  3452   001D06  2215               	addwfc	(___lmul@product+2)^0,f,c
  3453   001D08  5012               	movf	(___lmul@multiplicand+3)^0,w,c
  3454   001D0A  2216               	addwfc	(___lmul@product+3)^0,f,c
  3455   001D0C                     l2103:
  3456   001D0C  90D8               	bcf	status,0,c
  3457   001D0E  360F               	rlcf	___lmul@multiplicand^0,f,c
  3458   001D10  3610               	rlcf	(___lmul@multiplicand+1)^0,f,c
  3459   001D12  3611               	rlcf	(___lmul@multiplicand+2)^0,f,c
  3460   001D14  3612               	rlcf	(___lmul@multiplicand+3)^0,f,c
  3461   001D16  90D8               	bcf	status,0,c
  3462   001D18  320E               	rrcf	(___lmul@multiplier+3)^0,f,c
  3463   001D1A  320D               	rrcf	(___lmul@multiplier+2)^0,f,c
  3464   001D1C  320C               	rrcf	(___lmul@multiplier+1)^0,f,c
  3465   001D1E  320B               	rrcf	___lmul@multiplier^0,f,c
  3466   001D20  500B               	movf	___lmul@multiplier^0,w,c
  3467   001D22  100C               	iorwf	(___lmul@multiplier+1)^0,w,c
  3468   001D24  100D               	iorwf	(___lmul@multiplier+2)^0,w,c
  3469   001D26  100E               	iorwf	(___lmul@multiplier+3)^0,w,c
  3470   001D28  A4D8               	btfss	status,2,c
  3471   001D2A  EF99  F00E         	goto	u1481
  3472   001D2E  EF9B  F00E         	goto	u1480
  3473   001D32                     u1481:
  3474   001D32  EF77  F00E         	goto	l2099
  3475   001D36                     u1480:
  3476   001D36  C013  F00B         	movff	___lmul@product,?___lmul
  3477   001D3A  C014  F00C         	movff	___lmul@product+1,?___lmul+1
  3478   001D3E  C015  F00D         	movff	___lmul@product+2,?___lmul+2
  3479   001D42  C016  F00E         	movff	___lmul@product+3,?___lmul+3
  3480   001D46  0012               	return		;funcret
  3481   001D48                     __end_of___lmul:
  3482                           	callstack 0
  3483                           
  3484 ;; *************** function _printf *****************
  3485 ;; Defined at:
  3486 ;;		line 5 in file "C:\Program Files\Microchip\xc8\v2.41\pic\sources\c99\common\printf.c"
  3487 ;; Parameters:    Size  Location     Type
  3488 ;;  fmt             2   73[COMRAM] PTR const unsigned char 
  3489 ;;		 -> STR_5(8), STR_4(8), STR_3(4), STR_2(4), 
  3490 ;;		 -> STR_1(13), 
  3491 ;; Auto vars:     Size  Location     Type
  3492 ;;  ap              2   77[COMRAM] PTR void [1]
  3493 ;;		 -> ?_printf(2), 
  3494 ;;  ret             2    0        int 
  3495 ;; Return value:  Size  Location     Type
  3496 ;;                  2   73[COMRAM] int 
  3497 ;; Registers used:
  3498 ;;		wreg, fsr1l, fsr1h, fsr2l, fsr2h, status,2, status,0, tblptrl, tblptrh, tblptru, cstack
  3499 ;; Tracked objects:
  3500 ;;		On entry : 0/0
  3501 ;;		On exit  : 0/0
  3502 ;;		Unchanged: 0/0
  3503 ;; Data sizes:     COMRAM   BANK0   BANK1   BANK2   BANK3   BANK4   BANK5
  3504 ;;      Params:         4       0       0       0       0       0       0
  3505 ;;      Locals:         2       0       0       0       0       0       0
  3506 ;;      Temps:          0       0       0       0       0       0       0
  3507 ;;      Totals:         6       0       0       0       0       0       0
  3508 ;;Total ram usage:        6 bytes
  3509 ;; Hardware stack levels used: 1
  3510 ;; Hardware stack levels required when called: 8
  3511 ;; This function calls:
  3512 ;;		_vfprintf
  3513 ;; This function is called by:
  3514 ;;		_main
  3515 ;; This function uses a non-reentrant model
  3516 ;;
  3517                           
  3518                           	psect	text8
  3519   001E86                     __ptext8:
  3520                           	callstack 0
  3521   001E86                     _printf:
  3522                           	callstack 22
  3523   001E86  0E4C               	movlw	low (?_printf+2)
  3524   001E88  6E4E               	movwf	printf@ap^0,c
  3525   001E8A  0E00               	movlw	high (?_printf+2)
  3526   001E8C  6E4F               	movwf	(printf@ap+1)^0,c
  3527   001E8E  0E00               	movlw	0
  3528   001E90  6E42               	movwf	vfprintf@fp^0,c
  3529   001E92  0E00               	movlw	0
  3530   001E94  6E43               	movwf	(vfprintf@fp+1)^0,c
  3531   001E96  C04A  F044         	movff	printf@fmt,vfprintf@fmt
  3532   001E9A  C04B  F045         	movff	printf@fmt+1,vfprintf@fmt+1
  3533   001E9E  0E4E               	movlw	low printf@ap
  3534   001EA0  6E46               	movwf	vfprintf@ap^0,c
  3535   001EA2  0E00               	movlw	high printf@ap
  3536   001EA4  6E47               	movwf	(vfprintf@ap+1)^0,c
  3537   001EA6  ECA4  F00E         	call	_vfprintf	;wreg free
  3538   001EAA  0012               	return		;funcret
  3539   001EAC                     __end_of_printf:
  3540                           	callstack 0
  3541                           
  3542 ;; *************** function _vfprintf *****************
  3543 ;; Defined at:
  3544 ;;		line 1546 in file "C:\Program Files\Microchip\xc8\v2.41\pic\sources\c99\common\doprnt.c"
  3545 ;; Parameters:    Size  Location     Type
  3546 ;;  fp              2   65[COMRAM] PTR struct _IO_FILE
  3547 ;;		 -> NULL(0), 
  3548 ;;  fmt             2   67[COMRAM] PTR const unsigned char 
  3549 ;;		 -> STR_5(8), STR_4(8), STR_3(4), STR_2(4), 
  3550 ;;		 -> STR_1(13), 
  3551 ;;  ap              2   69[COMRAM] PTR PTR void 
  3552 ;;		 -> printf@ap(2), 
  3553 ;; Auto vars:     Size  Location     Type
  3554 ;;  cfmt            2   71[COMRAM] PTR unsigned char 
  3555 ;;		 -> STR_5(8), STR_4(8), STR_3(4), STR_2(4), 
  3556 ;;		 -> STR_1(13), 
  3557 ;; Return value:  Size  Location     Type
  3558 ;;                  2   65[COMRAM] int 
  3559 ;; Registers used:
  3560 ;;		wreg, fsr1l, fsr1h, fsr2l, fsr2h, status,2, status,0, tblptrl, tblptrh, tblptru, cstack
  3561 ;; Tracked objects:
  3562 ;;		On entry : 0/0
  3563 ;;		On exit  : 0/0
  3564 ;;		Unchanged: 0/0
  3565 ;; Data sizes:     COMRAM   BANK0   BANK1   BANK2   BANK3   BANK4   BANK5
  3566 ;;      Params:         6       0       0       0       0       0       0
  3567 ;;      Locals:         2       0       0       0       0       0       0
  3568 ;;      Temps:          0       0       0       0       0       0       0
  3569 ;;      Totals:         8       0       0       0       0       0       0
  3570 ;;Total ram usage:        8 bytes
  3571 ;; Hardware stack levels used: 1
  3572 ;; Hardware stack levels required when called: 7
  3573 ;; This function calls:
  3574 ;;		_vfpfcnvrt
  3575 ;; This function is called by:
  3576 ;;		_printf
  3577 ;; This function uses a non-reentrant model
  3578 ;;
  3579                           
  3580                           	psect	text9
  3581   001D48                     __ptext9:
  3582                           	callstack 0
  3583   001D48                     _vfprintf:
  3584                           	callstack 22
  3585   001D48                     
  3586                           ;C:\Program Files\Microchip\xc8\v2.41\pic\sources\c99\common\doprnt.c: 1546: int vfprint
      +                          f(FILE *fp, const char *fmt, va_list ap);C:\Program Files\Microchip\xc8\v2.41\pic\source
      +                          s\c99\common\doprnt.c: 1547: {;C:\Program Files\Microchip\xc8\v2.41\pic\sources\c99\comm
      +                          on\doprnt.c: 1549:     char *cfmt;;C:\Program Files\Microchip\xc8\v2.41\pic\sources\c99\
      +                          common\doprnt.c: 1551:     cfmt = (char *)fmt;
  3587   001D48  C044  F048         	movff	vfprintf@fmt,vfprintf@cfmt
  3588   001D4C  C045  F049         	movff	vfprintf@fmt+1,vfprintf@cfmt+1
  3589                           
  3590                           ;C:\Program Files\Microchip\xc8\v2.41\pic\sources\c99\common\doprnt.c: 1555:     while (
      +                          *cfmt) {
  3591   001D50  EFB8  F00E         	goto	l2111
  3592   001D54                     l2109:
  3593                           
  3594                           ;C:\Program Files\Microchip\xc8\v2.41\pic\sources\c99\common\doprnt.c: 1559:    vfpfcnvr
      +                          t(fp, &cfmt, ap);
  3595   001D54  C042  F034         	movff	vfprintf@fp,vfpfcnvrt@fp
  3596   001D58  C043  F035         	movff	vfprintf@fp+1,vfpfcnvrt@fp+1
  3597   001D5C  0E48               	movlw	low vfprintf@cfmt
  3598   001D5E  6E36               	movwf	vfpfcnvrt@fmt^0,c
  3599   001D60  0E00               	movlw	high vfprintf@cfmt
  3600   001D62  6E37               	movwf	(vfpfcnvrt@fmt+1)^0,c
  3601   001D64  C046  F038         	movff	vfprintf@ap,vfpfcnvrt@ap
  3602   001D68  C047  F039         	movff	vfprintf@ap+1,vfpfcnvrt@ap+1
  3603   001D6C  EC0F  F00C         	call	_vfpfcnvrt	;wreg free
  3604   001D70                     l2111:
  3605                           
  3606                           ;C:\Program Files\Microchip\xc8\v2.41\pic\sources\c99\common\doprnt.c: 1555:     while (
      +                          *cfmt) {
  3607   001D70  C048  FFF6         	movff	vfprintf@cfmt,tblptrl
  3608   001D74  C049  FFF7         	movff	vfprintf@cfmt+1,tblptrh
  3609   001D78                     	if	0	;tblptru may be non-zero
  3610   001D78                     	endif
  3611   001D78                     	if	0	;tblptru may be non-zero
  3612   001D78                     	endif
  3613   001D78  0008               	tblrd		*
  3614   001D7A  50F5               	movf	tablat,w,c
  3615   001D7C  0900               	iorlw	0
  3616   001D7E  A4D8               	btfss	status,2,c
  3617   001D80  EFC4  F00E         	goto	u1491
  3618   001D84  EFC6  F00E         	goto	u1490
  3619   001D88                     u1491:
  3620   001D88  EFAA  F00E         	goto	l2109
  3621   001D8C                     u1490:
  3622   001D8C                     
  3623                           ;C:\Program Files\Microchip\xc8\v2.41\pic\sources\c99\common\doprnt.c: 1564:  return 0;
  3624   001D8C  0E00               	movlw	0
  3625   001D8E  6E43               	movwf	(?_vfprintf+1)^0,c
  3626   001D90  0E00               	movlw	0
  3627   001D92  6E42               	movwf	?_vfprintf^0,c
  3628   001D94  0012               	return		;funcret
  3629   001D96                     __end_of_vfprintf:
  3630                           	callstack 0
  3631                           
  3632 ;; *************** function _vfpfcnvrt *****************
  3633 ;; Defined at:
  3634 ;;		line 1048 in file "C:\Program Files\Microchip\xc8\v2.41\pic\sources\c99\common\doprnt.c"
  3635 ;; Parameters:    Size  Location     Type
  3636 ;;  fp              2   51[COMRAM] PTR struct _IO_FILE
  3637 ;;		 -> NULL(0), 
  3638 ;;  fmt             2   53[COMRAM] PTR PTR unsigned char 
  3639 ;;		 -> vfprintf@cfmt(2), 
  3640 ;;  ap              2   55[COMRAM] PTR PTR void 
  3641 ;;		 -> printf@ap(2), 
  3642 ;; Auto vars:     Size  Location     Type
  3643 ;;  convarg         4   59[COMRAM] struct .
  3644 ;;  cp              2   63[COMRAM] PTR unsigned char 
  3645 ;;		 -> STR_5(8), STR_4(8), STR_3(4), STR_2(4), 
  3646 ;;		 -> STR_1(13), 
  3647 ;;  i               2    0        int 
  3648 ;;  done            2    0        int 
  3649 ;;  c               1    0        unsigned char 
  3650 ;; Return value:  Size  Location     Type
  3651 ;;                  1    wreg      void 
  3652 ;; Registers used:
  3653 ;;		wreg, fsr1l, fsr1h, fsr2l, fsr2h, status,2, status,0, tblptrl, tblptrh, tblptru, cstack
  3654 ;; Tracked objects:
  3655 ;;		On entry : 0/0
  3656 ;;		On exit  : 0/0
  3657 ;;		Unchanged: 0/0
  3658 ;; Data sizes:     COMRAM   BANK0   BANK1   BANK2   BANK3   BANK4   BANK5
  3659 ;;      Params:         6       0       0       0       0       0       0
  3660 ;;      Locals:         6       0       0       0       0       0       0
  3661 ;;      Temps:          2       0       0       0       0       0       0
  3662 ;;      Totals:        14       0       0       0       0       0       0
  3663 ;;Total ram usage:       14 bytes
  3664 ;; Hardware stack levels used: 1
  3665 ;; Hardware stack levels required when called: 6
  3666 ;; This function calls:
  3667 ;;		_dtoa
  3668 ;;		_fputc
  3669 ;; This function is called by:
  3670 ;;		_vfprintf
  3671 ;; This function uses a non-reentrant model
  3672 ;;
  3673                           
  3674                           	psect	text10
  3675   00181E                     __ptext10:
  3676                           	callstack 0
  3677   00181E                     _vfpfcnvrt:
  3678                           	callstack 22
  3679   00181E                     
  3680                           ;C:\Program Files\Microchip\xc8\v2.41\pic\sources\c99\common\doprnt.c: 1048: vfpfcnvrt(F
      +                          ILE *fp, char *fmt[], va_list ap);C:\Program Files\Microchip\xc8\v2.41\pic\sources\c99\c
      +                          ommon\doprnt.c: 1049: {;C:\Program Files\Microchip\xc8\v2.41\pic\sources\c99\common\dopr
      +                          nt.c: 1050:     char c, *cp;;C:\Program Files\Microchip\xc8\v2.41\pic\sources\c99\common
      +                          \doprnt.c: 1051:     int done, i;;C:\Program Files\Microchip\xc8\v2.41\pic\sources\c99\c
      +                          ommon\doprnt.c: 1059:  } convarg;;C:\Program Files\Microchip\xc8\v2.41\pic\sources\c99\c
      +                          ommon\doprnt.c: 1062:     if ((*fmt)[0] == '%') {
  3681   00181E  C036  FFD9         	movff	vfpfcnvrt@fmt,fsr2l
  3682   001822  C037  FFDA         	movff	vfpfcnvrt@fmt+1,fsr2h
  3683   001826  CFDE FFF6          	movff	postinc2,tblptrl
  3684   00182A  CFDD FFF7          	movff	postdec2,tblptrh
  3685   00182E                     	if	0	;tblptru may be non-zero
  3686   00182E                     	endif
  3687   00182E                     	if	0	;tblptru may be non-zero
  3688   00182E                     	endif
  3689   00182E  0008               	tblrd		*
  3690   001830  50F5               	movf	tablat,w,c
  3691   001832  0A25               	xorlw	37
  3692   001834  A4D8               	btfss	status,2,c
  3693   001836  EF1F  F00C         	goto	u1441
  3694   00183A  EF21  F00C         	goto	u1440
  3695   00183E                     u1441:
  3696   00183E  EF8B  F00C         	goto	l2091
  3697   001842                     u1440:
  3698   001842                     
  3699                           ;C:\Program Files\Microchip\xc8\v2.41\pic\sources\c99\common\doprnt.c: 1063:         ++*
      +                          fmt;
  3700   001842  C036  FFD9         	movff	vfpfcnvrt@fmt,fsr2l
  3701   001846  C037  FFDA         	movff	vfpfcnvrt@fmt+1,fsr2h
  3702   00184A  2ADE               	incf	postinc2,f,c
  3703   00184C  0E00               	movlw	0
  3704   00184E  22DD               	addwfc	postdec2,f,c
  3705   001850                     
  3706                           ;C:\Program Files\Microchip\xc8\v2.41\pic\sources\c99\common\doprnt.c: 1065:         fla
      +                          gs = width = 0;
  3707   001850  0E00               	movlw	0
  3708   001852  6E69               	movwf	(_width+1)^0,c
  3709   001854  0E00               	movlw	0
  3710   001856  6E68               	movwf	_width^0,c
  3711   001858  C068  F06C         	movff	_width,_flags
  3712   00185C                     
  3713                           ;C:\Program Files\Microchip\xc8\v2.41\pic\sources\c99\common\doprnt.c: 1066:         pre
      +                          c = -1;
  3714   00185C  686A               	setf	_prec^0,c
  3715   00185E  686B               	setf	(_prec+1)^0,c
  3716   001860                     
  3717                           ;C:\Program Files\Microchip\xc8\v2.41\pic\sources\c99\common\doprnt.c: 1143:   cp = *fmt
      +                          ;
  3718   001860  C036  FFD9         	movff	vfpfcnvrt@fmt,fsr2l
  3719   001864  C037  FFDA         	movff	vfpfcnvrt@fmt+1,fsr2h
  3720   001868  CFDE F040          	movff	postinc2,vfpfcnvrt@cp
  3721   00186C  CFDD F041          	movff	postdec2,vfpfcnvrt@cp+1
  3722   001870                     
  3723                           ;C:\Program Files\Microchip\xc8\v2.41\pic\sources\c99\common\doprnt.c: 1213:   if (*cp =
      +                          = 'd' || *cp == 'i') {
  3724   001870  C040  FFF6         	movff	vfpfcnvrt@cp,tblptrl
  3725   001874  C041  FFF7         	movff	vfpfcnvrt@cp+1,tblptrh
  3726   001878                     	if	0	;tblptru may be non-zero
  3727   001878                     	endif
  3728   001878                     	if	0	;tblptru may be non-zero
  3729   001878                     	endif
  3730   001878  0008               	tblrd		*
  3731   00187A  50F5               	movf	tablat,w,c
  3732   00187C  0A64               	xorlw	100
  3733   00187E  B4D8               	btfsc	status,2,c
  3734   001880  EF44  F00C         	goto	u1451
  3735   001884  EF46  F00C         	goto	u1450
  3736   001888                     u1451:
  3737   001888  EF54  F00C         	goto	l2081
  3738   00188C                     u1450:
  3739   00188C  C040  FFF6         	movff	vfpfcnvrt@cp,tblptrl
  3740   001890  C041  FFF7         	movff	vfpfcnvrt@cp+1,tblptrh
  3741   001894                     	if	0	;tblptru may be non-zero
  3742   001894                     	endif
  3743   001894                     	if	0	;tblptru may be non-zero
  3744   001894                     	endif
  3745   001894  0008               	tblrd		*
  3746   001896  50F5               	movf	tablat,w,c
  3747   001898  0A69               	xorlw	105
  3748   00189A  A4D8               	btfss	status,2,c
  3749   00189C  EF52  F00C         	goto	u1461
  3750   0018A0  EF54  F00C         	goto	u1460
  3751   0018A4                     u1461:
  3752   0018A4  EF82  F00C         	goto	l2087
  3753   0018A8                     u1460:
  3754   0018A8                     l2081:
  3755                           
  3756                           ;C:\Program Files\Microchip\xc8\v2.41\pic\sources\c99\common\doprnt.c: 1256:    convarg.
      +                          sint = (vfpf_sint_t)(int)(*(int *)__va_arg(*(int **)ap, (int)0));
  3757   0018A8  C038  FFD9         	movff	vfpfcnvrt@ap,fsr2l
  3758   0018AC  C039  FFDA         	movff	vfpfcnvrt@ap+1,fsr2h
  3759   0018B0  CFDF F03A          	movff	indf2,??_vfpfcnvrt
  3760   0018B4  0E02               	movlw	2
  3761   0018B6  26DE               	addwf	postinc2,f,c
  3762   0018B8  CFDF F03B          	movff	indf2,??_vfpfcnvrt+1
  3763   0018BC  0E00               	movlw	0
  3764   0018BE  22DD               	addwfc	postdec2,f,c
  3765   0018C0  C03A  FFD9         	movff	??_vfpfcnvrt,fsr2l
  3766   0018C4  C03B  FFDA         	movff	??_vfpfcnvrt+1,fsr2h
  3767   0018C8  CFDE F03C          	movff	postinc2,vfpfcnvrt@convarg
  3768   0018CC  CFDD F03D          	movff	postdec2,vfpfcnvrt@convarg+1
  3769                           
  3770                           ;C:\Program Files\Microchip\xc8\v2.41\pic\sources\c99\common\doprnt.c: 1258:    *fmt = c
      +                          p+1;
  3771   0018D0  0E01               	movlw	1
  3772   0018D2  2440               	addwf	vfpfcnvrt@cp^0,w,c
  3773   0018D4  6E3A               	movwf	??_vfpfcnvrt^0,c
  3774   0018D6  0E00               	movlw	0
  3775   0018D8  2041               	addwfc	(vfpfcnvrt@cp+1)^0,w,c
  3776   0018DA  6E3B               	movwf	(??_vfpfcnvrt+1)^0,c
  3777   0018DC  C036  FFD9         	movff	vfpfcnvrt@fmt,fsr2l
  3778   0018E0  C037  FFDA         	movff	vfpfcnvrt@fmt+1,fsr2h
  3779   0018E4  C03A  FFDE         	movff	??_vfpfcnvrt,postinc2
  3780   0018E8  C03B  FFDD         	movff	??_vfpfcnvrt+1,postdec2
  3781   0018EC                     
  3782                           ;C:\Program Files\Microchip\xc8\v2.41\pic\sources\c99\common\doprnt.c: 1259:    return (
      +                          void) dtoa(fp, convarg.sint);;	Return value of _vfpfcnvrt is never used
  3783   0018EC  C034  F027         	movff	vfpfcnvrt@fp,dtoa@fp
  3784   0018F0  C035  F028         	movff	vfpfcnvrt@fp+1,dtoa@fp+1
  3785   0018F4  C03C  F029         	movff	vfpfcnvrt@convarg,dtoa@d
  3786   0018F8  C03D  F02A         	movff	vfpfcnvrt@convarg+1,dtoa@d+1
  3787   0018FC  EC59  F009         	call	_dtoa	;wreg free
  3788   001900  EF9F  F00C         	goto	l968
  3789   001904                     l2087:
  3790                           
  3791                           ;C:\Program Files\Microchip\xc8\v2.41\pic\sources\c99\common\doprnt.c: 1535:         ++*
      +                          fmt;
  3792   001904  C036  FFD9         	movff	vfpfcnvrt@fmt,fsr2l
  3793   001908  C037  FFDA         	movff	vfpfcnvrt@fmt+1,fsr2h
  3794   00190C  2ADE               	incf	postinc2,f,c
  3795   00190E  0E00               	movlw	0
  3796   001910  22DD               	addwfc	postdec2,f,c
  3797   001912  EF9F  F00C         	goto	l968
  3798   001916                     l2091:
  3799                           
  3800                           ;C:\Program Files\Microchip\xc8\v2.41\pic\sources\c99\common\doprnt.c: 1540:     fputc((
      +                          int)(*fmt)[0], fp);
  3801   001916  C036  FFD9         	movff	vfpfcnvrt@fmt,fsr2l
  3802   00191A  C037  FFDA         	movff	vfpfcnvrt@fmt+1,fsr2h
  3803   00191E  CFDE FFF6          	movff	postinc2,tblptrl
  3804   001922  CFDD FFF7          	movff	postdec2,tblptrh
  3805   001926                     	if	0	;tblptru may be non-zero
  3806   001926                     	endif
  3807   001926                     	if	0	;tblptru may be non-zero
  3808   001926                     	endif
  3809   001926  0008               	tblrd		*
  3810   001928  50F5               	movf	tablat,w,c
  3811   00192A  6E0C               	movwf	fputc@c^0,c
  3812   00192C  6A0D               	clrf	(fputc@c+1)^0,c
  3813   00192E  C034  F00E         	movff	vfpfcnvrt@fp,fputc@fp
  3814   001932  C035  F00F         	movff	vfpfcnvrt@fp+1,fputc@fp+1
  3815   001936  ECA0  F00C         	call	_fputc	;wreg free
  3816   00193A  EF82  F00C         	goto	l2087
  3817   00193E                     l968:
  3818   00193E  0012               	return		;funcret
  3819   001940                     __end_of_vfpfcnvrt:
  3820                           	callstack 0
  3821                           
  3822 ;; *************** function _dtoa *****************
  3823 ;; Defined at:
  3824 ;;		line 470 in file "C:\Program Files\Microchip\xc8\v2.41\pic\sources\c99\common\doprnt.c"
  3825 ;; Parameters:    Size  Location     Type
  3826 ;;  fp              2   38[COMRAM] PTR struct _IO_FILE
  3827 ;;		 -> NULL(0), 
  3828 ;;  d               2   40[COMRAM] int 
  3829 ;; Auto vars:     Size  Location     Type
  3830 ;;  i               2   48[COMRAM] int 
  3831 ;;  w               2   46[COMRAM] int 
  3832 ;;  p               2   44[COMRAM] int 
  3833 ;;  s               1   50[COMRAM] unsigned char 
  3834 ;; Return value:  Size  Location     Type
  3835 ;;                  1    wreg      void 
  3836 ;; Registers used:
  3837 ;;		wreg, fsr1l, fsr1h, fsr2l, fsr2h, status,2, status,0, cstack
  3838 ;; Tracked objects:
  3839 ;;		On entry : 0/0
  3840 ;;		On exit  : 0/0
  3841 ;;		Unchanged: 0/0
  3842 ;; Data sizes:     COMRAM   BANK0   BANK1   BANK2   BANK3   BANK4   BANK5
  3843 ;;      Params:         4       0       0       0       0       0       0
  3844 ;;      Locals:         9       0       0       0       0       0       0
  3845 ;;      Temps:          0       0       0       0       0       0       0
  3846 ;;      Totals:        13       0       0       0       0       0       0
  3847 ;;Total ram usage:       13 bytes
  3848 ;; Hardware stack levels used: 1
  3849 ;; Hardware stack levels required when called: 5
  3850 ;; This function calls:
  3851 ;;		___awdiv
  3852 ;;		___awmod
  3853 ;;		_abs
  3854 ;;		_pad
  3855 ;; This function is called by:
  3856 ;;		_vfpfcnvrt
  3857 ;; This function uses a non-reentrant model
  3858 ;;
  3859                           
  3860                           	psect	text11
  3861   0012B2                     __ptext11:
  3862                           	callstack 0
  3863   0012B2                     _dtoa:
  3864                           	callstack 22
  3865   0012B2                     
  3866                           ;C:\Program Files\Microchip\xc8\v2.41\pic\sources\c99\common\doprnt.c: 470: static void 
      +                          dtoa(FILE *fp, vfpf_sint_t d);C:\Program Files\Microchip\xc8\v2.41\pic\sources\c99\commo
      +                          n\doprnt.c: 471: {;C:\Program Files\Microchip\xc8\v2.41\pic\sources\c99\common\doprnt.c:
      +                           472:  char s;;C:\Program Files\Microchip\xc8\v2.41\pic\sources\c99\common\doprnt.c: 473
      +                          :     int i, p, w;;C:\Program Files\Microchip\xc8\v2.41\pic\sources\c99\common\doprnt.c:
      +                           476:     s = d < 0 ? 1 : 0;
  3867   0012B2  BE2A               	btfsc	(dtoa@d+1)^0,7,c
  3868   0012B4  EF5E  F009         	goto	u1341
  3869   0012B8  EF61  F009         	goto	u1340
  3870   0012BC                     u1341:
  3871   0012BC  0E01               	movlw	1
  3872   0012BE  EF62  F009         	goto	u1350
  3873   0012C2                     u1340:
  3874   0012C2  0E00               	movlw	0
  3875   0012C4                     u1350:
  3876   0012C4  6E33               	movwf	dtoa@s^0,c
  3877   0012C6                     
  3878                           ;C:\Program Files\Microchip\xc8\v2.41\pic\sources\c99\common\doprnt.c: 477:     if (s) {
  3879   0012C6  5033               	movf	dtoa@s^0,w,c
  3880   0012C8  B4D8               	btfsc	status,2,c
  3881   0012CA  EF69  F009         	goto	u1361
  3882   0012CE  EF6B  F009         	goto	u1360
  3883   0012D2                     u1361:
  3884   0012D2  EF6F  F009         	goto	l2023
  3885   0012D6                     u1360:
  3886   0012D6                     
  3887                           ;C:\Program Files\Microchip\xc8\v2.41\pic\sources\c99\common\doprnt.c: 478:         d = 
      +                          -d;
  3888   0012D6  6C29               	negf	dtoa@d^0,c
  3889   0012D8  1E2A               	comf	(dtoa@d+1)^0,f,c
  3890   0012DA  B0D8               	btfsc	status,0,c
  3891   0012DC  2A2A               	incf	(dtoa@d+1)^0,f,c
  3892   0012DE                     l2023:
  3893                           
  3894                           ;C:\Program Files\Microchip\xc8\v2.41\pic\sources\c99\common\doprnt.c: 487:     p = (0 <
      +                          = prec) ? prec : 1;
  3895   0012DE  BE6B               	btfsc	(_prec+1)^0,7,c
  3896   0012E0  EF76  F009         	goto	u1370
  3897   0012E4  EF74  F009         	goto	u1371
  3898   0012E8                     u1371:
  3899   0012E8  EF7C  F009         	goto	l947
  3900   0012EC                     u1370:
  3901   0012EC  0E00               	movlw	0
  3902   0012EE  6E2E               	movwf	(dtoa@p+1)^0,c
  3903   0012F0  0E01               	movlw	1
  3904   0012F2  6E2D               	movwf	dtoa@p^0,c
  3905   0012F4  EF80  F009         	goto	l949
  3906   0012F8                     l947:
  3907   0012F8  C06A  F02D         	movff	_prec,dtoa@p
  3908   0012FC  C06B  F02E         	movff	_prec+1,dtoa@p+1
  3909   001300                     l949:
  3910                           
  3911                           ;C:\Program Files\Microchip\xc8\v2.41\pic\sources\c99\common\doprnt.c: 488:     w = widt
      +                          h;
  3912   001300  C068  F02F         	movff	_width,dtoa@w
  3913   001304  C069  F030         	movff	_width+1,dtoa@w+1
  3914   001308                     
  3915                           ;C:\Program Files\Microchip\xc8\v2.41\pic\sources\c99\common\doprnt.c: 489:     if (s
  3916   001308  5033               	movf	dtoa@s^0,w,c
  3917   00130A  B4D8               	btfsc	status,2,c
  3918   00130C  EF8A  F009         	goto	u1381
  3919   001310  EF8C  F009         	goto	u1380
  3920   001314                     u1381:
  3921   001314  EFA3  F009         	goto	l950
  3922   001318                     u1380:
  3923   001318                     
  3924                           ;C:\Program Files\Microchip\xc8\v2.41\pic\sources\c99\common\doprnt.c: 493:     ) {;C:\P
      +                          rogram Files\Microchip\xc8\v2.41\pic\sources\c99\common\doprnt.c: 494:         --w;
  3925   001318  062F               	decf	dtoa@w^0,f,c
  3926   00131A  A0D8               	btfss	status,0,c
  3927   00131C  0630               	decf	(dtoa@w+1)^0,f,c
  3928   00131E                     
  3929                           ;C:\Program Files\Microchip\xc8\v2.41\pic\sources\c99\common\doprnt.c: 495:   s = s ? '-
      +                          ' : '+';
  3930   00131E  5033               	movf	dtoa@s^0,w,c
  3931   001320  A4D8               	btfss	status,2,c
  3932   001322  EF95  F009         	goto	u1391
  3933   001326  EF97  F009         	goto	u1390
  3934   00132A                     u1391:
  3935   00132A  EF9D  F009         	goto	l2035
  3936   00132E                     u1390:
  3937   00132E  0E00               	movlw	0
  3938   001330  6E2C               	movwf	(_dtoa$1373+1)^0,c
  3939   001332  0E2B               	movlw	43
  3940   001334  6E2B               	movwf	_dtoa$1373^0,c
  3941   001336  EFA1  F009         	goto	l2037
  3942   00133A                     l2035:
  3943   00133A  0E00               	movlw	0
  3944   00133C  6E2C               	movwf	(_dtoa$1373+1)^0,c
  3945   00133E  0E2D               	movlw	45
  3946   001340  6E2B               	movwf	_dtoa$1373^0,c
  3947   001342                     l2037:
  3948   001342  C02B  F033         	movff	_dtoa$1373,dtoa@s
  3949   001346                     l950:
  3950                           
  3951                           ;C:\Program Files\Microchip\xc8\v2.41\pic\sources\c99\common\doprnt.c: 505:     i = size
      +                          of(dbuf) - 1;
  3952   001346  0E00               	movlw	0
  3953   001348  6E32               	movwf	(dtoa@i+1)^0,c
  3954   00134A  0E1F               	movlw	31
  3955   00134C  6E31               	movwf	dtoa@i^0,c
  3956   00134E                     
  3957                           ;C:\Program Files\Microchip\xc8\v2.41\pic\sources\c99\common\doprnt.c: 506:     dbuf[i] 
      +                          = '\0';
  3958   00134E  0E00               	movlw	0
  3959   001350  0100               	movlb	0	; () banked
  3960   001352  6FF5               	movwf	(_dbuf+31)& (0+255),b
  3961                           
  3962                           ;C:\Program Files\Microchip\xc8\v2.41\pic\sources\c99\common\doprnt.c: 507:     while (!
      +                          (i < 1) && (d || (0 < p)
  3963   001354  EFDC  F009         	goto	l2051
  3964   001358                     l2041:
  3965                           
  3966                           ;C:\Program Files\Microchip\xc8\v2.41\pic\sources\c99\common\doprnt.c: 511:     )) {;C:\
      +                          Program Files\Microchip\xc8\v2.41\pic\sources\c99\common\doprnt.c: 512:         --i;
  3967   001358  0631               	decf	dtoa@i^0,f,c
  3968   00135A  A0D8               	btfss	status,0,c
  3969   00135C  0632               	decf	(dtoa@i+1)^0,f,c
  3970   00135E                     
  3971                           ;C:\Program Files\Microchip\xc8\v2.41\pic\sources\c99\common\doprnt.c: 513:         dbuf
      +                          [i] = (char)((int)'0' + abs(d % 10));
  3972   00135E  0ED6               	movlw	low _dbuf
  3973   001360  2431               	addwf	dtoa@i^0,w,c
  3974   001362  6ED9               	movwf	fsr2l,c
  3975   001364  0E00               	movlw	high _dbuf
  3976   001366  2032               	addwfc	(dtoa@i+1)^0,w,c
  3977   001368  6EDA               	movwf	fsr2h,c
  3978   00136A  C029  F00B         	movff	dtoa@d,___awmod@dividend
  3979   00136E  C02A  F00C         	movff	dtoa@d+1,___awmod@dividend+1
  3980   001372  0E00               	movlw	0
  3981   001374  6E0E               	movwf	(___awmod@divisor+1)^0,c
  3982   001376  0E0A               	movlw	10
  3983   001378  6E0D               	movwf	___awmod@divisor^0,c
  3984   00137A  EC67  F00D         	call	___awmod	;wreg free
  3985   00137E  C00B  F011         	movff	?___awmod,abs@a
  3986   001382  C00C  F012         	movff	?___awmod+1,abs@a+1
  3987   001386  ECED  F00E         	call	_abs	;wreg free
  3988   00138A  5011               	movf	?_abs^0,w,c
  3989   00138C  0F30               	addlw	48
  3990   00138E  6EDF               	movwf	indf2,c
  3991   001390                     
  3992                           ;C:\Program Files\Microchip\xc8\v2.41\pic\sources\c99\common\doprnt.c: 514:         --p;
  3993   001390  062D               	decf	dtoa@p^0,f,c
  3994   001392  A0D8               	btfss	status,0,c
  3995   001394  062E               	decf	(dtoa@p+1)^0,f,c
  3996   001396                     
  3997                           ;C:\Program Files\Microchip\xc8\v2.41\pic\sources\c99\common\doprnt.c: 515:         --w;
  3998   001396  062F               	decf	dtoa@w^0,f,c
  3999   001398  A0D8               	btfss	status,0,c
  4000   00139A  0630               	decf	(dtoa@w+1)^0,f,c
  4001   00139C                     
  4002                           ;C:\Program Files\Microchip\xc8\v2.41\pic\sources\c99\common\doprnt.c: 516:         d = 
      +                          d / 10;
  4003   00139C  C029  F00B         	movff	dtoa@d,___awdiv@dividend
  4004   0013A0  C02A  F00C         	movff	dtoa@d+1,___awdiv@dividend+1
  4005   0013A4  0E00               	movlw	0
  4006   0013A6  6E0E               	movwf	(___awdiv@divisor+1)^0,c
  4007   0013A8  0E0A               	movlw	10
  4008   0013AA  6E0D               	movwf	___awdiv@divisor^0,c
  4009   0013AC  EC05  F00D         	call	___awdiv	;wreg free
  4010   0013B0  C00B  F029         	movff	?___awdiv,dtoa@d
  4011   0013B4  C00C  F02A         	movff	?___awdiv+1,dtoa@d+1
  4012   0013B8                     l2051:
  4013                           
  4014                           ;C:\Program Files\Microchip\xc8\v2.41\pic\sources\c99\common\doprnt.c: 507:     while (!
      +                          (i < 1) && (d || (0 < p)
  4015   0013B8  BE32               	btfsc	(dtoa@i+1)^0,7,c
  4016   0013BA  EFE7  F009         	goto	u1401
  4017   0013BE  5032               	movf	(dtoa@i+1)^0,w,c
  4018   0013C0  E108               	bnz	u1400
  4019   0013C2  0431               	decf	dtoa@i^0,w,c
  4020   0013C4  A0D8               	btfss	status,0,c
  4021   0013C6  EFE7  F009         	goto	u1401
  4022   0013CA  EFE9  F009         	goto	u1400
  4023   0013CE                     u1401:
  4024   0013CE  EFFF  F009         	goto	l2057
  4025   0013D2                     u1400:
  4026   0013D2  5029               	movf	dtoa@d^0,w,c
  4027   0013D4  102A               	iorwf	(dtoa@d+1)^0,w,c
  4028   0013D6  A4D8               	btfss	status,2,c
  4029   0013D8  EFF0  F009         	goto	u1411
  4030   0013DC  EFF2  F009         	goto	u1410
  4031   0013E0                     u1411:
  4032   0013E0  EFAC  F009         	goto	l2041
  4033   0013E4                     u1410:
  4034   0013E4  BE2E               	btfsc	(dtoa@p+1)^0,7,c
  4035   0013E6  EFFF  F009         	goto	u1420
  4036   0013EA  502E               	movf	(dtoa@p+1)^0,w,c
  4037   0013EC  E106               	bnz	u1421
  4038   0013EE  042D               	decf	dtoa@p^0,w,c
  4039   0013F0  B0D8               	btfsc	status,0,c
  4040   0013F2  EFFD  F009         	goto	u1421
  4041   0013F6  EFFF  F009         	goto	u1420
  4042   0013FA                     u1421:
  4043   0013FA  EFAC  F009         	goto	l2041
  4044   0013FE                     u1420:
  4045   0013FE                     l2057:
  4046                           
  4047                           ;C:\Program Files\Microchip\xc8\v2.41\pic\sources\c99\common\doprnt.c: 520:     if (s !=
      +                           0) {
  4048   0013FE  5033               	movf	dtoa@s^0,w,c
  4049   001400  B4D8               	btfsc	status,2,c
  4050   001402  EF05  F00A         	goto	u1431
  4051   001406  EF07  F00A         	goto	u1430
  4052   00140A                     u1431:
  4053   00140A  EF12  F00A         	goto	l2063
  4054   00140E                     u1430:
  4055   00140E                     
  4056                           ;C:\Program Files\Microchip\xc8\v2.41\pic\sources\c99\common\doprnt.c: 521:         --i;
  4057   00140E  0631               	decf	dtoa@i^0,f,c
  4058   001410  A0D8               	btfss	status,0,c
  4059   001412  0632               	decf	(dtoa@i+1)^0,f,c
  4060   001414                     
  4061                           ;C:\Program Files\Microchip\xc8\v2.41\pic\sources\c99\common\doprnt.c: 522:         dbuf
      +                          [i] = s;
  4062   001414  0ED6               	movlw	low _dbuf
  4063   001416  2431               	addwf	dtoa@i^0,w,c
  4064   001418  6ED9               	movwf	fsr2l,c
  4065   00141A  0E00               	movlw	high _dbuf
  4066   00141C  2032               	addwfc	(dtoa@i+1)^0,w,c
  4067   00141E  6EDA               	movwf	fsr2h,c
  4068   001420  C033  FFDF         	movff	dtoa@s,indf2
  4069   001424                     l2063:
  4070                           
  4071                           ;C:\Program Files\Microchip\xc8\v2.41\pic\sources\c99\common\doprnt.c: 526:     return (
      +                          void) pad(fp, &dbuf[i], w);
  4072   001424  C027  F01C         	movff	dtoa@fp,pad@fp
  4073   001428  C028  F01D         	movff	dtoa@fp+1,pad@fp+1
  4074   00142C  0ED6               	movlw	low _dbuf
  4075   00142E  2431               	addwf	dtoa@i^0,w,c
  4076   001430  6E1E               	movwf	pad@buf^0,c
  4077   001432  0E00               	movlw	high _dbuf
  4078   001434  2032               	addwfc	(dtoa@i+1)^0,w,c
  4079   001436  6E1F               	movwf	(pad@buf+1)^0,c
  4080   001438  C02F  F020         	movff	dtoa@w,pad@p
  4081   00143C  C030  F021         	movff	dtoa@w+1,pad@p+1
  4082   001440  ECFC  F00D         	call	_pad	;wreg free
  4083   001444  0012               	return		;funcret
  4084   001446                     __end_of_dtoa:
  4085                           	callstack 0
  4086                           
  4087 ;; *************** function _pad *****************
  4088 ;; Defined at:
  4089 ;;		line 152 in file "C:\Program Files\Microchip\xc8\v2.41\pic\sources\c99\common\doprnt.c"
  4090 ;; Parameters:    Size  Location     Type
  4091 ;;  fp              2   27[COMRAM] PTR struct _IO_FILE
  4092 ;;		 -> NULL(0), 
  4093 ;;  buf             2   29[COMRAM] PTR unsigned char 
  4094 ;;		 -> dbuf(32), 
  4095 ;;  p               2   31[COMRAM] int 
  4096 ;; Auto vars:     Size  Location     Type
  4097 ;;  w               2   36[COMRAM] int 
  4098 ;;  i               2   34[COMRAM] int 
  4099 ;; Return value:  Size  Location     Type
  4100 ;;                  1    wreg      void 
  4101 ;; Registers used:
  4102 ;;		wreg, fsr1l, fsr1h, fsr2l, fsr2h, status,2, status,0, cstack
  4103 ;; Tracked objects:
  4104 ;;		On entry : 0/0
  4105 ;;		On exit  : 0/0
  4106 ;;		Unchanged: 0/0
  4107 ;; Data sizes:     COMRAM   BANK0   BANK1   BANK2   BANK3   BANK4   BANK5
  4108 ;;      Params:         6       0       0       0       0       0       0
  4109 ;;      Locals:         4       0       0       0       0       0       0
  4110 ;;      Temps:          1       0       0       0       0       0       0
  4111 ;;      Totals:        11       0       0       0       0       0       0
  4112 ;;Total ram usage:       11 bytes
  4113 ;; Hardware stack levels used: 1
  4114 ;; Hardware stack levels required when called: 4
  4115 ;; This function calls:
  4116 ;;		_fputc
  4117 ;;		_fputs
  4118 ;; This function is called by:
  4119 ;;		_dtoa
  4120 ;; This function uses a non-reentrant model
  4121 ;;
  4122                           
  4123                           	psect	text12
  4124   001BF8                     __ptext12:
  4125                           	callstack 0
  4126   001BF8                     _pad:
  4127                           	callstack 22
  4128   001BF8                     
  4129                           ;C:\Program Files\Microchip\xc8\v2.41\pic\sources\c99\common\doprnt.c: 152: static void 
      +                          pad(FILE *fp, char *buf, int p);C:\Program Files\Microchip\xc8\v2.41\pic\sources\c99\com
      +                          mon\doprnt.c: 153: {;C:\Program Files\Microchip\xc8\v2.41\pic\sources\c99\common\doprnt.
      +                          c: 154:     int i, w;;C:\Program Files\Microchip\xc8\v2.41\pic\sources\c99\common\doprnt
      +                          .c: 164:     w = (p < 0) ? 0 : p;
  4130   001BF8  BE21               	btfsc	(pad@p+1)^0,7,c
  4131   001BFA  EF01  F00E         	goto	u1311
  4132   001BFE  EF03  F00E         	goto	u1310
  4133   001C02                     u1311:
  4134   001C02  EF09  F00E         	goto	l2003
  4135   001C06                     u1310:
  4136   001C06  C020  F025         	movff	pad@p,pad@w
  4137   001C0A  C021  F026         	movff	pad@p+1,pad@w+1
  4138   001C0E  EF0D  F00E         	goto	l938
  4139   001C12                     l2003:
  4140   001C12  0E00               	movlw	0
  4141   001C14  6E26               	movwf	(pad@w+1)^0,c
  4142   001C16  0E00               	movlw	0
  4143   001C18  6E25               	movwf	pad@w^0,c
  4144   001C1A                     l938:
  4145                           
  4146                           ;C:\Program Files\Microchip\xc8\v2.41\pic\sources\c99\common\doprnt.c: 165:     i = 0;
  4147   001C1A  0E00               	movlw	0
  4148   001C1C  6E24               	movwf	(pad@i+1)^0,c
  4149   001C1E  0E00               	movlw	0
  4150   001C20  6E23               	movwf	pad@i^0,c
  4151                           
  4152                           ;C:\Program Files\Microchip\xc8\v2.41\pic\sources\c99\common\doprnt.c: 166:     while (i
      +                           < w) {
  4153   001C22  EF1F  F00E         	goto	l2009
  4154   001C26                     l2005:
  4155                           
  4156                           ;C:\Program Files\Microchip\xc8\v2.41\pic\sources\c99\common\doprnt.c: 167:         fput
      +                          c(' ', fp);
  4157   001C26  0E00               	movlw	0
  4158   001C28  6E0D               	movwf	(fputc@c+1)^0,c
  4159   001C2A  0E20               	movlw	32
  4160   001C2C  6E0C               	movwf	fputc@c^0,c
  4161   001C2E  C01C  F00E         	movff	pad@fp,fputc@fp
  4162   001C32  C01D  F00F         	movff	pad@fp+1,fputc@fp+1
  4163   001C36  ECA0  F00C         	call	_fputc	;wreg free
  4164   001C3A                     
  4165                           ;C:\Program Files\Microchip\xc8\v2.41\pic\sources\c99\common\doprnt.c: 168:         ++i;
  4166   001C3A  4A23               	infsnz	pad@i^0,f,c
  4167   001C3C  2A24               	incf	(pad@i+1)^0,f,c
  4168   001C3E                     l2009:
  4169                           
  4170                           ;C:\Program Files\Microchip\xc8\v2.41\pic\sources\c99\common\doprnt.c: 166:     while (i
      +                           < w) {
  4171   001C3E  5025               	movf	pad@w^0,w,c
  4172   001C40  5C23               	subwf	pad@i^0,w,c
  4173   001C42  5024               	movf	(pad@i+1)^0,w,c
  4174   001C44  0A80               	xorlw	128
  4175   001C46  6E22               	movwf	??_pad^0,c
  4176   001C48  5026               	movf	(pad@w+1)^0,w,c
  4177   001C4A  0A80               	xorlw	128
  4178   001C4C  5822               	subwfb	??_pad^0,w,c
  4179   001C4E  A0D8               	btfss	status,0,c
  4180   001C50  EF2C  F00E         	goto	u1321
  4181   001C54  EF2E  F00E         	goto	u1320
  4182   001C58                     u1321:
  4183   001C58  EF13  F00E         	goto	l2005
  4184   001C5C                     u1320:
  4185   001C5C                     
  4186                           ;C:\Program Files\Microchip\xc8\v2.41\pic\sources\c99\common\doprnt.c: 175:         fput
      +                          s((const char *)buf, fp);
  4187   001C5C  C01E  F015         	movff	pad@buf,fputs@s
  4188   001C60  C01F  F016         	movff	pad@buf+1,fputs@s+1
  4189   001C64  C01C  F017         	movff	pad@fp,fputs@fp
  4190   001C68  C01D  F018         	movff	pad@fp+1,fputs@fp+1
  4191   001C6C  ECCB  F00E         	call	_fputs	;wreg free
  4192   001C70  0012               	return		;funcret
  4193   001C72                     __end_of_pad:
  4194                           	callstack 0
  4195                           
  4196 ;; *************** function _fputs *****************
  4197 ;; Defined at:
  4198 ;;		line 8 in file "C:\Program Files\Microchip\xc8\v2.41\pic\sources\c99\common\nf_fputs.c"
  4199 ;; Parameters:    Size  Location     Type
  4200 ;;  s               2   20[COMRAM] PTR const unsigned char 
  4201 ;;		 -> dbuf(32), 
  4202 ;;  fp              2   22[COMRAM] PTR struct _IO_FILE
  4203 ;;		 -> NULL(0), 
  4204 ;; Auto vars:     Size  Location     Type
  4205 ;;  i               2   25[COMRAM] int 
  4206 ;;  c               1   24[COMRAM] unsigned char 
  4207 ;; Return value:  Size  Location     Type
  4208 ;;                  2   20[COMRAM] int 
  4209 ;; Registers used:
  4210 ;;		wreg, fsr1l, fsr1h, fsr2l, fsr2h, status,2, status,0, cstack
  4211 ;; Tracked objects:
  4212 ;;		On entry : 0/0
  4213 ;;		On exit  : 0/0
  4214 ;;		Unchanged: 0/0
  4215 ;; Data sizes:     COMRAM   BANK0   BANK1   BANK2   BANK3   BANK4   BANK5
  4216 ;;      Params:         4       0       0       0       0       0       0
  4217 ;;      Locals:         3       0       0       0       0       0       0
  4218 ;;      Temps:          0       0       0       0       0       0       0
  4219 ;;      Totals:         7       0       0       0       0       0       0
  4220 ;;Total ram usage:        7 bytes
  4221 ;; Hardware stack levels used: 1
  4222 ;; Hardware stack levels required when called: 3
  4223 ;; This function calls:
  4224 ;;		_fputc
  4225 ;; This function is called by:
  4226 ;;		_pad
  4227 ;; This function uses a non-reentrant model
  4228 ;;
  4229                           
  4230                           	psect	text13
  4231   001D96                     __ptext13:
  4232                           	callstack 0
  4233   001D96                     _fputs:
  4234                           	callstack 22
  4235   001D96  0E00               	movlw	0
  4236   001D98  6E1B               	movwf	(fputs@i+1)^0,c
  4237   001D9A  0E00               	movlw	0
  4238   001D9C  6E1A               	movwf	fputs@i^0,c
  4239   001D9E  EFDC  F00E         	goto	l1917
  4240   001DA2                     l1913:
  4241   001DA2  C019  F00C         	movff	fputs@c,fputc@c
  4242   001DA6  6A0D               	clrf	(fputc@c+1)^0,c
  4243   001DA8  C017  F00E         	movff	fputs@fp,fputc@fp
  4244   001DAC  C018  F00F         	movff	fputs@fp+1,fputc@fp+1
  4245   001DB0  ECA0  F00C         	call	_fputc	;wreg free
  4246   001DB4  4A1A               	infsnz	fputs@i^0,f,c
  4247   001DB6  2A1B               	incf	(fputs@i+1)^0,f,c
  4248   001DB8                     l1917:
  4249   001DB8  501A               	movf	fputs@i^0,w,c
  4250   001DBA  2415               	addwf	fputs@s^0,w,c
  4251   001DBC  6ED9               	movwf	fsr2l,c
  4252   001DBE  501B               	movf	(fputs@i+1)^0,w,c
  4253   001DC0  2016               	addwfc	(fputs@s+1)^0,w,c
  4254   001DC2  6EDA               	movwf	fsr2h,c
  4255   001DC4  50DF               	movf	indf2,w,c
  4256   001DC6  6E19               	movwf	fputs@c^0,c
  4257   001DC8  5019               	movf	fputs@c^0,w,c
  4258   001DCA  A4D8               	btfss	status,2,c
  4259   001DCC  EFEA  F00E         	goto	u1181
  4260   001DD0  EFEC  F00E         	goto	u1180
  4261   001DD4                     u1181:
  4262   001DD4  EFD1  F00E         	goto	l1913
  4263   001DD8                     u1180:
  4264   001DD8  0012               	return		;funcret
  4265   001DDA                     __end_of_fputs:
  4266                           	callstack 0
  4267                           
  4268 ;; *************** function _fputc *****************
  4269 ;; Defined at:
  4270 ;;		line 8 in file "C:\Program Files\Microchip\xc8\v2.41\pic\sources\c99\common\nf_fputc.c"
  4271 ;; Parameters:    Size  Location     Type
  4272 ;;  c               2   11[COMRAM] int 
  4273 ;;  fp              2   13[COMRAM] PTR struct _IO_FILE
  4274 ;;		 -> NULL(0), 
  4275 ;; Auto vars:     Size  Location     Type
  4276 ;;		None
  4277 ;; Return value:  Size  Location     Type
  4278 ;;                  2   11[COMRAM] int 
  4279 ;; Registers used:
  4280 ;;		wreg, fsr1l, fsr1h, fsr2l, fsr2h, status,2, status,0, cstack
  4281 ;; Tracked objects:
  4282 ;;		On entry : 0/0
  4283 ;;		On exit  : 0/0
  4284 ;;		Unchanged: 0/0
  4285 ;; Data sizes:     COMRAM   BANK0   BANK1   BANK2   BANK3   BANK4   BANK5
  4286 ;;      Params:         4       0       0       0       0       0       0
  4287 ;;      Locals:         0       0       0       0       0       0       0
  4288 ;;      Temps:          5       0       0       0       0       0       0
  4289 ;;      Totals:         9       0       0       0       0       0       0
  4290 ;;Total ram usage:        9 bytes
  4291 ;; Hardware stack levels used: 1
  4292 ;; Hardware stack levels required when called: 2
  4293 ;; This function calls:
  4294 ;;		_putch
  4295 ;; This function is called by:
  4296 ;;		_pad
  4297 ;;		_vfpfcnvrt
  4298 ;;		_fputs
  4299 ;; This function uses a non-reentrant model
  4300 ;;
  4301                           
  4302                           	psect	text14
  4303   001940                     __ptext14:
  4304                           	callstack 0
  4305   001940                     _fputc:
  4306                           	callstack 25
  4307   001940  500E               	movf	fputc@fp^0,w,c
  4308   001942  100F               	iorwf	(fputc@fp+1)^0,w,c
  4309   001944  B4D8               	btfsc	status,2,c
  4310   001946  EFA7  F00C         	goto	u1141
  4311   00194A  EFA9  F00C         	goto	u1140
  4312   00194E                     u1141:
  4313   00194E  EFB2  F00C         	goto	l1901
  4314   001952                     u1140:
  4315   001952  500E               	movf	fputc@fp^0,w,c
  4316   001954  100F               	iorwf	(fputc@fp+1)^0,w,c
  4317   001956  A4D8               	btfss	status,2,c
  4318   001958  EFB0  F00C         	goto	u1151
  4319   00195C  EFB2  F00C         	goto	u1150
  4320   001960                     u1151:
  4321   001960  EFB7  F00C         	goto	l1903
  4322   001964                     u1150:
  4323   001964                     l1901:
  4324   001964  500C               	movf	fputc@c^0,w,c
  4325   001966  EC81  F00F         	call	_putch
  4326   00196A  EF04  F00D         	goto	l993
  4327   00196E                     l1903:
  4328   00196E  EE20 F00A          	lfsr	2,10
  4329   001972  500E               	movf	fputc@fp^0,w,c
  4330   001974  26D9               	addwf	fsr2l,f,c
  4331   001976  500F               	movf	(fputc@fp+1)^0,w,c
  4332   001978  22DA               	addwfc	fsr2h,f,c
  4333   00197A  50DE               	movf	postinc2,w,c
  4334   00197C  10DE               	iorwf	postinc2,w,c
  4335   00197E  B4D8               	btfsc	status,2,c
  4336   001980  EFC4  F00C         	goto	u1161
  4337   001984  EFC6  F00C         	goto	u1160
  4338   001988                     u1161:
  4339   001988  EFE1  F00C         	goto	l1907
  4340   00198C                     u1160:
  4341   00198C  EE20 F00A          	lfsr	2,10
  4342   001990  500E               	movf	fputc@fp^0,w,c
  4343   001992  26D9               	addwf	fsr2l,f,c
  4344   001994  500F               	movf	(fputc@fp+1)^0,w,c
  4345   001996  22DA               	addwfc	fsr2h,f,c
  4346   001998  EE10 F003          	lfsr	1,3
  4347   00199C  500E               	movf	fputc@fp^0,w,c
  4348   00199E  26E1               	addwf	fsr1l,f,c
  4349   0019A0  500F               	movf	(fputc@fp+1)^0,w,c
  4350   0019A2  22E2               	addwfc	fsr1h,f,c
  4351   0019A4  50DE               	movf	postinc2,w,c
  4352   0019A6  5CE6               	subwf	postinc1,w,c
  4353   0019A8  50E6               	movf	postinc1,w,c
  4354   0019AA  0A80               	xorlw	128
  4355   0019AC  6E14               	movwf	(??_fputc+4)^0,c
  4356   0019AE  50DE               	movf	postinc2,w,c
  4357   0019B0  0A80               	xorlw	128
  4358   0019B2  5814               	subwfb	(??_fputc+4)^0,w,c
  4359   0019B4  B0D8               	btfsc	status,0,c
  4360   0019B6  EFDF  F00C         	goto	u1171
  4361   0019BA  EFE1  F00C         	goto	u1170
  4362   0019BE                     u1171:
  4363   0019BE  EF04  F00D         	goto	l993
  4364   0019C2                     u1170:
  4365   0019C2                     l1907:
  4366   0019C2  EE20 F003          	lfsr	2,3
  4367   0019C6  500E               	movf	fputc@fp^0,w,c
  4368   0019C8  26D9               	addwf	fsr2l,f,c
  4369   0019CA  500F               	movf	(fputc@fp+1)^0,w,c
  4370   0019CC  22DA               	addwfc	fsr2h,f,c
  4371   0019CE  CFDE F010          	movff	postinc2,??_fputc
  4372   0019D2  CFDD F011          	movff	postdec2,??_fputc+1
  4373   0019D6  C00E  FFD9         	movff	fputc@fp,fsr2l
  4374   0019DA  C00F  FFDA         	movff	fputc@fp+1,fsr2h
  4375   0019DE  CFDE F012          	movff	postinc2,??_fputc+2
  4376   0019E2  CFDD F013          	movff	postdec2,??_fputc+3
  4377   0019E6  5010               	movf	??_fputc^0,w,c
  4378   0019E8  2412               	addwf	(??_fputc+2)^0,w,c
  4379   0019EA  6ED9               	movwf	fsr2l,c
  4380   0019EC  5011               	movf	(??_fputc+1)^0,w,c
  4381   0019EE  2013               	addwfc	(??_fputc+3)^0,w,c
  4382   0019F0  6EDA               	movwf	fsr2h,c
  4383   0019F2  C00C  FFDF         	movff	fputc@c,indf2
  4384   0019F6  EE20 F003          	lfsr	2,3
  4385   0019FA  500E               	movf	fputc@fp^0,w,c
  4386   0019FC  26D9               	addwf	fsr2l,f,c
  4387   0019FE  500F               	movf	(fputc@fp+1)^0,w,c
  4388   001A00  22DA               	addwfc	fsr2h,f,c
  4389   001A02  2ADE               	incf	postinc2,f,c
  4390   001A04  0E00               	movlw	0
  4391   001A06  22DD               	addwfc	postdec2,f,c
  4392   001A08                     l993:
  4393   001A08  0012               	return		;funcret
  4394   001A0A                     __end_of_fputc:
  4395                           	callstack 0
  4396                           
  4397 ;; *************** function _putch *****************
  4398 ;; Defined at:
  4399 ;;		line 34 in file "main.c"
  4400 ;; Parameters:    Size  Location     Type
  4401 ;;  byte            1    wreg     unsigned char 
  4402 ;; Auto vars:     Size  Location     Type
  4403 ;;  byte            1   10[COMRAM] unsigned char 
  4404 ;; Return value:  Size  Location     Type
  4405 ;;                  1    wreg      void 
  4406 ;; Registers used:
  4407 ;;		wreg
  4408 ;; Tracked objects:
  4409 ;;		On entry : 0/0
  4410 ;;		On exit  : 0/0
  4411 ;;		Unchanged: 0/0
  4412 ;; Data sizes:     COMRAM   BANK0   BANK1   BANK2   BANK3   BANK4   BANK5
  4413 ;;      Params:         0       0       0       0       0       0       0
  4414 ;;      Locals:         1       0       0       0       0       0       0
  4415 ;;      Temps:          0       0       0       0       0       0       0
  4416 ;;      Totals:         1       0       0       0       0       0       0
  4417 ;;Total ram usage:        1 bytes
  4418 ;; Hardware stack levels used: 1
  4419 ;; Hardware stack levels required when called: 1
  4420 ;; This function calls:
  4421 ;;		Nothing
  4422 ;; This function is called by:
  4423 ;;		_fputc
  4424 ;; This function uses a non-reentrant model
  4425 ;;
  4426                           
  4427                           	psect	text15
  4428   001F02                     __ptext15:
  4429                           	callstack 0
  4430   001F02                     _putch:
  4431                           	callstack 25
  4432                           
  4433                           ;incstack = 0
  4434                           ;putch@byte stored from wreg
  4435   001F02  6E0B               	movwf	putch@byte^0,c
  4436   001F04                     
  4437                           ;main.c: 35:     TXREG = byte;
  4438   001F04  C00B  FFAD         	movff	putch@byte,4013	;volatile
  4439   001F08                     l67:
  4440   001F08  A2AC               	btfss	172,1,c	;volatile
  4441   001F0A  EF89  F00F         	goto	u1131
  4442   001F0E  EF8B  F00F         	goto	u1130
  4443   001F12                     u1131:
  4444   001F12  EF84  F00F         	goto	l67
  4445   001F16                     u1130:
  4446   001F16  0012               	return		;funcret
  4447   001F18                     __end_of_putch:
  4448                           	callstack 0
  4449                           
  4450 ;; *************** function _abs *****************
  4451 ;; Defined at:
  4452 ;;		line 1 in file "C:\Program Files\Microchip\xc8\v2.41\pic\sources\c99\common\abs.c"
  4453 ;; Parameters:    Size  Location     Type
  4454 ;;  a               2   16[COMRAM] int 
  4455 ;; Auto vars:     Size  Location     Type
  4456 ;;		None
  4457 ;; Return value:  Size  Location     Type
  4458 ;;                  2   16[COMRAM] int 
  4459 ;; Registers used:
  4460 ;;		wreg, status,2, status,0
  4461 ;; Tracked objects:
  4462 ;;		On entry : 0/0
  4463 ;;		On exit  : 0/0
  4464 ;;		Unchanged: 0/0
  4465 ;; Data sizes:     COMRAM   BANK0   BANK1   BANK2   BANK3   BANK4   BANK5
  4466 ;;      Params:         2       0       0       0       0       0       0
  4467 ;;      Locals:         0       0       0       0       0       0       0
  4468 ;;      Temps:          2       0       0       0       0       0       0
  4469 ;;      Totals:         4       0       0       0       0       0       0
  4470 ;;Total ram usage:        4 bytes
  4471 ;; Hardware stack levels used: 1
  4472 ;; Hardware stack levels required when called: 1
  4473 ;; This function calls:
  4474 ;;		Nothing
  4475 ;; This function is called by:
  4476 ;;		_dtoa
  4477 ;; This function uses a non-reentrant model
  4478 ;;
  4479                           
  4480                           	psect	text16
  4481   001DDA                     __ptext16:
  4482                           	callstack 0
  4483   001DDA                     _abs:
  4484                           	callstack 25
  4485   001DDA  BE12               	btfsc	(abs@a+1)^0,7,c
  4486   001DDC  EFFA  F00E         	goto	u1330
  4487   001DE0  5012               	movf	(abs@a+1)^0,w,c
  4488   001DE2  E106               	bnz	u1331
  4489   001DE4  0411               	decf	abs@a^0,w,c
  4490   001DE6  B0D8               	btfsc	status,0,c
  4491   001DE8  EFF8  F00E         	goto	u1331
  4492   001DEC  EFFA  F00E         	goto	u1330
  4493   001DF0                     u1331:
  4494   001DF0  EF08  F00F         	goto	l978
  4495   001DF4                     u1330:
  4496   001DF4  C011  F013         	movff	abs@a,??_abs
  4497   001DF8  C012  F014         	movff	abs@a+1,??_abs+1
  4498   001DFC  1E13               	comf	??_abs^0,f,c
  4499   001DFE  1E14               	comf	(??_abs+1)^0,f,c
  4500   001E00  4A13               	infsnz	??_abs^0,f,c
  4501   001E02  2A14               	incf	(??_abs+1)^0,f,c
  4502   001E04  C013  F011         	movff	??_abs,?_abs
  4503   001E08  C014  F012         	movff	??_abs+1,?_abs+1
  4504   001E0C  EF0C  F00F         	goto	l981
  4505   001E10                     l978:
  4506   001E10  C011  F011         	movff	abs@a,?_abs
  4507   001E14  C012  F012         	movff	abs@a+1,?_abs+1
  4508   001E18                     l981:
  4509   001E18  0012               	return		;funcret
  4510   001E1A                     __end_of_abs:
  4511                           	callstack 0
  4512                           
  4513 ;; *************** function ___awmod *****************
  4514 ;; Defined at:
  4515 ;;		line 7 in file "C:\Program Files\Microchip\xc8\v2.41\pic\sources\c99\common\awmod.c"
  4516 ;; Parameters:    Size  Location     Type
  4517 ;;  dividend        2   10[COMRAM] int 
  4518 ;;  divisor         2   12[COMRAM] int 
  4519 ;; Auto vars:     Size  Location     Type
  4520 ;;  sign            1   15[COMRAM] unsigned char 
  4521 ;;  counter         1   14[COMRAM] unsigned char 
  4522 ;; Return value:  Size  Location     Type
  4523 ;;                  2   10[COMRAM] int 
  4524 ;; Registers used:
  4525 ;;		wreg, status,2, status,0
  4526 ;; Tracked objects:
  4527 ;;		On entry : 0/0
  4528 ;;		On exit  : 0/0
  4529 ;;		Unchanged: 0/0
  4530 ;; Data sizes:     COMRAM   BANK0   BANK1   BANK2   BANK3   BANK4   BANK5
  4531 ;;      Params:         4       0       0       0       0       0       0
  4532 ;;      Locals:         2       0       0       0       0       0       0
  4533 ;;      Temps:          0       0       0       0       0       0       0
  4534 ;;      Totals:         6       0       0       0       0       0       0
  4535 ;;Total ram usage:        6 bytes
  4536 ;; Hardware stack levels used: 1
  4537 ;; Hardware stack levels required when called: 1
  4538 ;; This function calls:
  4539 ;;		Nothing
  4540 ;; This function is called by:
  4541 ;;		_dtoa
  4542 ;; This function uses a non-reentrant model
  4543 ;;
  4544                           
  4545                           	psect	text17
  4546   001ACE                     __ptext17:
  4547                           	callstack 0
  4548   001ACE                     ___awmod:
  4549                           	callstack 25
  4550   001ACE  0E00               	movlw	0
  4551   001AD0  6E10               	movwf	___awmod@sign^0,c
  4552   001AD2  BE0C               	btfsc	(___awmod@dividend+1)^0,7,c
  4553   001AD4  EF70  F00D         	goto	u1250
  4554   001AD8  EF6E  F00D         	goto	u1251
  4555   001ADC                     u1251:
  4556   001ADC  EF76  F00D         	goto	l1971
  4557   001AE0                     u1250:
  4558   001AE0  6C0B               	negf	___awmod@dividend^0,c
  4559   001AE2  1E0C               	comf	(___awmod@dividend+1)^0,f,c
  4560   001AE4  B0D8               	btfsc	status,0,c
  4561   001AE6  2A0C               	incf	(___awmod@dividend+1)^0,f,c
  4562   001AE8  0E01               	movlw	1
  4563   001AEA  6E10               	movwf	___awmod@sign^0,c
  4564   001AEC                     l1971:
  4565   001AEC  BE0E               	btfsc	(___awmod@divisor+1)^0,7,c
  4566   001AEE  EF7D  F00D         	goto	u1260
  4567   001AF2  EF7B  F00D         	goto	u1261
  4568   001AF6                     u1261:
  4569   001AF6  EF81  F00D         	goto	l1975
  4570   001AFA                     u1260:
  4571   001AFA  6C0D               	negf	___awmod@divisor^0,c
  4572   001AFC  1E0E               	comf	(___awmod@divisor+1)^0,f,c
  4573   001AFE  B0D8               	btfsc	status,0,c
  4574   001B00  2A0E               	incf	(___awmod@divisor+1)^0,f,c
  4575   001B02                     l1975:
  4576   001B02  500D               	movf	___awmod@divisor^0,w,c
  4577   001B04  100E               	iorwf	(___awmod@divisor+1)^0,w,c
  4578   001B06  B4D8               	btfsc	status,2,c
  4579   001B08  EF88  F00D         	goto	u1271
  4580   001B0C  EF8A  F00D         	goto	u1270
  4581   001B10                     u1271:
  4582   001B10  EFAE  F00D         	goto	l1991
  4583   001B14                     u1270:
  4584   001B14  0E01               	movlw	1
  4585   001B16  6E0F               	movwf	___awmod@counter^0,c
  4586   001B18  EF92  F00D         	goto	l1981
  4587   001B1C                     l1979:
  4588   001B1C  90D8               	bcf	status,0,c
  4589   001B1E  360D               	rlcf	___awmod@divisor^0,f,c
  4590   001B20  360E               	rlcf	(___awmod@divisor+1)^0,f,c
  4591   001B22  2A0F               	incf	___awmod@counter^0,f,c
  4592   001B24                     l1981:
  4593   001B24  AE0E               	btfss	(___awmod@divisor+1)^0,7,c
  4594   001B26  EF97  F00D         	goto	u1281
  4595   001B2A  EF99  F00D         	goto	u1280
  4596   001B2E                     u1281:
  4597   001B2E  EF8E  F00D         	goto	l1979
  4598   001B32                     u1280:
  4599   001B32                     l1983:
  4600   001B32  500D               	movf	___awmod@divisor^0,w,c
  4601   001B34  5C0B               	subwf	___awmod@dividend^0,w,c
  4602   001B36  500E               	movf	(___awmod@divisor+1)^0,w,c
  4603   001B38  580C               	subwfb	(___awmod@dividend+1)^0,w,c
  4604   001B3A  A0D8               	btfss	status,0,c
  4605   001B3C  EFA2  F00D         	goto	u1291
  4606   001B40  EFA4  F00D         	goto	u1290
  4607   001B44                     u1291:
  4608   001B44  EFA8  F00D         	goto	l1987
  4609   001B48                     u1290:
  4610   001B48  500D               	movf	___awmod@divisor^0,w,c
  4611   001B4A  5E0B               	subwf	___awmod@dividend^0,f,c
  4612   001B4C  500E               	movf	(___awmod@divisor+1)^0,w,c
  4613   001B4E  5A0C               	subwfb	(___awmod@dividend+1)^0,f,c
  4614   001B50                     l1987:
  4615   001B50  90D8               	bcf	status,0,c
  4616   001B52  320E               	rrcf	(___awmod@divisor+1)^0,f,c
  4617   001B54  320D               	rrcf	___awmod@divisor^0,f,c
  4618   001B56  2E0F               	decfsz	___awmod@counter^0,f,c
  4619   001B58  EF99  F00D         	goto	l1983
  4620   001B5C                     l1991:
  4621   001B5C  5010               	movf	___awmod@sign^0,w,c
  4622   001B5E  B4D8               	btfsc	status,2,c
  4623   001B60  EFB4  F00D         	goto	u1301
  4624   001B64  EFB6  F00D         	goto	u1300
  4625   001B68                     u1301:
  4626   001B68  EFBA  F00D         	goto	l1995
  4627   001B6C                     u1300:
  4628   001B6C  6C0B               	negf	___awmod@dividend^0,c
  4629   001B6E  1E0C               	comf	(___awmod@dividend+1)^0,f,c
  4630   001B70  B0D8               	btfsc	status,0,c
  4631   001B72  2A0C               	incf	(___awmod@dividend+1)^0,f,c
  4632   001B74                     l1995:
  4633   001B74  C00B  F00B         	movff	___awmod@dividend,?___awmod
  4634   001B78  C00C  F00C         	movff	___awmod@dividend+1,?___awmod+1
  4635   001B7C  0012               	return		;funcret
  4636   001B7E                     __end_of___awmod:
  4637                           	callstack 0
  4638                           
  4639 ;; *************** function ___awdiv *****************
  4640 ;; Defined at:
  4641 ;;		line 7 in file "C:\Program Files\Microchip\xc8\v2.41\pic\sources\c99\common\awdiv.c"
  4642 ;; Parameters:    Size  Location     Type
  4643 ;;  dividend        2   10[COMRAM] int 
  4644 ;;  divisor         2   12[COMRAM] int 
  4645 ;; Auto vars:     Size  Location     Type
  4646 ;;  quotient        2   16[COMRAM] int 
  4647 ;;  sign            1   15[COMRAM] unsigned char 
  4648 ;;  counter         1   14[COMRAM] unsigned char 
  4649 ;; Return value:  Size  Location     Type
  4650 ;;                  2   10[COMRAM] int 
  4651 ;; Registers used:
  4652 ;;		wreg, status,2, status,0
  4653 ;; Tracked objects:
  4654 ;;		On entry : 0/0
  4655 ;;		On exit  : 0/0
  4656 ;;		Unchanged: 0/0
  4657 ;; Data sizes:     COMRAM   BANK0   BANK1   BANK2   BANK3   BANK4   BANK5
  4658 ;;      Params:         4       0       0       0       0       0       0
  4659 ;;      Locals:         4       0       0       0       0       0       0
  4660 ;;      Temps:          0       0       0       0       0       0       0
  4661 ;;      Totals:         8       0       0       0       0       0       0
  4662 ;;Total ram usage:        8 bytes
  4663 ;; Hardware stack levels used: 1
  4664 ;; Hardware stack levels required when called: 1
  4665 ;; This function calls:
  4666 ;;		Nothing
  4667 ;; This function is called by:
  4668 ;;		_dtoa
  4669 ;; This function uses a non-reentrant model
  4670 ;;
  4671                           
  4672                           	psect	text18
  4673   001A0A                     __ptext18:
  4674                           	callstack 0
  4675   001A0A                     ___awdiv:
  4676                           	callstack 25
  4677   001A0A  0E00               	movlw	0
  4678   001A0C  6E10               	movwf	___awdiv@sign^0,c
  4679   001A0E  BE0E               	btfsc	(___awdiv@divisor+1)^0,7,c
  4680   001A10  EF0E  F00D         	goto	u1190
  4681   001A14  EF0C  F00D         	goto	u1191
  4682   001A18                     u1191:
  4683   001A18  EF14  F00D         	goto	l1927
  4684   001A1C                     u1190:
  4685   001A1C  6C0D               	negf	___awdiv@divisor^0,c
  4686   001A1E  1E0E               	comf	(___awdiv@divisor+1)^0,f,c
  4687   001A20  B0D8               	btfsc	status,0,c
  4688   001A22  2A0E               	incf	(___awdiv@divisor+1)^0,f,c
  4689   001A24  0E01               	movlw	1
  4690   001A26  6E10               	movwf	___awdiv@sign^0,c
  4691   001A28                     l1927:
  4692   001A28  BE0C               	btfsc	(___awdiv@dividend+1)^0,7,c
  4693   001A2A  EF1B  F00D         	goto	u1200
  4694   001A2E  EF19  F00D         	goto	u1201
  4695   001A32                     u1201:
  4696   001A32  EF21  F00D         	goto	l1933
  4697   001A36                     u1200:
  4698   001A36  6C0B               	negf	___awdiv@dividend^0,c
  4699   001A38  1E0C               	comf	(___awdiv@dividend+1)^0,f,c
  4700   001A3A  B0D8               	btfsc	status,0,c
  4701   001A3C  2A0C               	incf	(___awdiv@dividend+1)^0,f,c
  4702   001A3E  0E01               	movlw	1
  4703   001A40  1A10               	xorwf	___awdiv@sign^0,f,c
  4704   001A42                     l1933:
  4705   001A42  0E00               	movlw	0
  4706   001A44  6E12               	movwf	(___awdiv@quotient+1)^0,c
  4707   001A46  0E00               	movlw	0
  4708   001A48  6E11               	movwf	___awdiv@quotient^0,c
  4709   001A4A  500D               	movf	___awdiv@divisor^0,w,c
  4710   001A4C  100E               	iorwf	(___awdiv@divisor+1)^0,w,c
  4711   001A4E  B4D8               	btfsc	status,2,c
  4712   001A50  EF2C  F00D         	goto	u1211
  4713   001A54  EF2E  F00D         	goto	u1210
  4714   001A58                     u1211:
  4715   001A58  EF56  F00D         	goto	l1955
  4716   001A5C                     u1210:
  4717   001A5C  0E01               	movlw	1
  4718   001A5E  6E0F               	movwf	___awdiv@counter^0,c
  4719   001A60  EF36  F00D         	goto	l1941
  4720   001A64                     l1939:
  4721   001A64  90D8               	bcf	status,0,c
  4722   001A66  360D               	rlcf	___awdiv@divisor^0,f,c
  4723   001A68  360E               	rlcf	(___awdiv@divisor+1)^0,f,c
  4724   001A6A  2A0F               	incf	___awdiv@counter^0,f,c
  4725   001A6C                     l1941:
  4726   001A6C  AE0E               	btfss	(___awdiv@divisor+1)^0,7,c
  4727   001A6E  EF3B  F00D         	goto	u1221
  4728   001A72  EF3D  F00D         	goto	u1220
  4729   001A76                     u1221:
  4730   001A76  EF32  F00D         	goto	l1939
  4731   001A7A                     u1220:
  4732   001A7A                     l1943:
  4733   001A7A  90D8               	bcf	status,0,c
  4734   001A7C  3611               	rlcf	___awdiv@quotient^0,f,c
  4735   001A7E  3612               	rlcf	(___awdiv@quotient+1)^0,f,c
  4736   001A80  500D               	movf	___awdiv@divisor^0,w,c
  4737   001A82  5C0B               	subwf	___awdiv@dividend^0,w,c
  4738   001A84  500E               	movf	(___awdiv@divisor+1)^0,w,c
  4739   001A86  580C               	subwfb	(___awdiv@dividend+1)^0,w,c
  4740   001A88  A0D8               	btfss	status,0,c
  4741   001A8A  EF49  F00D         	goto	u1231
  4742   001A8E  EF4B  F00D         	goto	u1230
  4743   001A92                     u1231:
  4744   001A92  EF50  F00D         	goto	l1951
  4745   001A96                     u1230:
  4746   001A96  500D               	movf	___awdiv@divisor^0,w,c
  4747   001A98  5E0B               	subwf	___awdiv@dividend^0,f,c
  4748   001A9A  500E               	movf	(___awdiv@divisor+1)^0,w,c
  4749   001A9C  5A0C               	subwfb	(___awdiv@dividend+1)^0,f,c
  4750   001A9E  8011               	bsf	___awdiv@quotient^0,0,c
  4751   001AA0                     l1951:
  4752   001AA0  90D8               	bcf	status,0,c
  4753   001AA2  320E               	rrcf	(___awdiv@divisor+1)^0,f,c
  4754   001AA4  320D               	rrcf	___awdiv@divisor^0,f,c
  4755   001AA6  2E0F               	decfsz	___awdiv@counter^0,f,c
  4756   001AA8  EF3D  F00D         	goto	l1943
  4757   001AAC                     l1955:
  4758   001AAC  5010               	movf	___awdiv@sign^0,w,c
  4759   001AAE  B4D8               	btfsc	status,2,c
  4760   001AB0  EF5C  F00D         	goto	u1241
  4761   001AB4  EF5E  F00D         	goto	u1240
  4762   001AB8                     u1241:
  4763   001AB8  EF62  F00D         	goto	l1959
  4764   001ABC                     u1240:
  4765   001ABC  6C11               	negf	___awdiv@quotient^0,c
  4766   001ABE  1E12               	comf	(___awdiv@quotient+1)^0,f,c
  4767   001AC0  B0D8               	btfsc	status,0,c
  4768   001AC2  2A12               	incf	(___awdiv@quotient+1)^0,f,c
  4769   001AC4                     l1959:
  4770   001AC4  C011  F00B         	movff	___awdiv@quotient,?___awdiv
  4771   001AC8  C012  F00C         	movff	___awdiv@quotient+1,?___awdiv+1
  4772   001ACC  0012               	return		;funcret
  4773   001ACE                     __end_of___awdiv:
  4774                           	callstack 0
  4775                           
  4776 ;; *************** function _millis *****************
  4777 ;; Defined at:
  4778 ;;		line 109 in file "main.c"
  4779 ;; Parameters:    Size  Location     Type
  4780 ;;		None
  4781 ;; Auto vars:     Size  Location     Type
  4782 ;;		None
  4783 ;; Return value:  Size  Location     Type
  4784 ;;                  8   10[COMRAM] unsigned long long 
  4785 ;; Registers used:
  4786 ;;		None
  4787 ;; Tracked objects:
  4788 ;;		On entry : 0/0
  4789 ;;		On exit  : 0/0
  4790 ;;		Unchanged: 0/0
  4791 ;; Data sizes:     COMRAM   BANK0   BANK1   BANK2   BANK3   BANK4   BANK5
  4792 ;;      Params:         8       0       0       0       0       0       0
  4793 ;;      Locals:         0       0       0       0       0       0       0
  4794 ;;      Temps:          0       0       0       0       0       0       0
  4795 ;;      Totals:         8       0       0       0       0       0       0
  4796 ;;Total ram usage:        8 bytes
  4797 ;; Hardware stack levels used: 1
  4798 ;; Hardware stack levels required when called: 1
  4799 ;; This function calls:
  4800 ;;		Nothing
  4801 ;; This function is called by:
  4802 ;;		_main
  4803 ;; This function uses a non-reentrant model
  4804 ;;
  4805                           
  4806                           	psect	text19
  4807   001EAC                     __ptext19:
  4808                           	callstack 0
  4809   001EAC                     _millis:
  4810                           	callstack 29
  4811   001EAC                     
  4812                           ;main.c: 110:     return MILI_CNT;
  4813   001EAC  C060  F00B         	movff	_MILI_CNT,?_millis
  4814   001EB0  C061  F00C         	movff	_MILI_CNT+1,?_millis+1
  4815   001EB4  C062  F00D         	movff	_MILI_CNT+2,?_millis+2
  4816   001EB8  C063  F00E         	movff	_MILI_CNT+3,?_millis+3
  4817   001EBC  C064  F00F         	movff	_MILI_CNT+4,?_millis+4
  4818   001EC0  C065  F010         	movff	_MILI_CNT+5,?_millis+5
  4819   001EC4  C066  F011         	movff	_MILI_CNT+6,?_millis+6
  4820   001EC8  C067  F012         	movff	_MILI_CNT+7,?_millis+7
  4821   001ECC  0012               	return		;funcret
  4822   001ECE                     __end_of_millis:
  4823                           	callstack 0
  4824                           
  4825 ;; *************** function _initUART *****************
  4826 ;; Defined at:
  4827 ;;		line 181 in file "main.c"
  4828 ;; Parameters:    Size  Location     Type
  4829 ;;		None
  4830 ;; Auto vars:     Size  Location     Type
  4831 ;;		None
  4832 ;; Return value:  Size  Location     Type
  4833 ;;                  1    wreg      void 
  4834 ;; Registers used:
  4835 ;;		wreg, status,2
  4836 ;; Tracked objects:
  4837 ;;		On entry : 0/0
  4838 ;;		On exit  : 0/0
  4839 ;;		Unchanged: 0/0
  4840 ;; Data sizes:     COMRAM   BANK0   BANK1   BANK2   BANK3   BANK4   BANK5
  4841 ;;      Params:         0       0       0       0       0       0       0
  4842 ;;      Locals:         0       0       0       0       0       0       0
  4843 ;;      Temps:          0       0       0       0       0       0       0
  4844 ;;      Totals:         0       0       0       0       0       0       0
  4845 ;;Total ram usage:        0 bytes
  4846 ;; Hardware stack levels used: 1
  4847 ;; Hardware stack levels required when called: 1
  4848 ;; This function calls:
  4849 ;;		Nothing
  4850 ;; This function is called by:
  4851 ;;		_main
  4852 ;; This function uses a non-reentrant model
  4853 ;;
  4854                           
  4855                           	psect	text20
  4856   001EE8                     __ptext20:
  4857                           	callstack 0
  4858   001EE8                     _initUART:
  4859                           	callstack 29
  4860   001EE8                     
  4861                           ;main.c: 182:     TRISCbits.RC6 = 1;
  4862   001EE8  8C94               	bsf	148,6,c	;volatile
  4863                           
  4864                           ;main.c: 183:     TRISCbits.RC7 = 1;
  4865   001EEA  8E94               	bsf	148,7,c	;volatile
  4866   001EEC                     
  4867                           ;main.c: 184:     SPBRG = 34;
  4868   001EEC  0E22               	movlw	34
  4869   001EEE  6EAF               	movwf	175,c	;volatile
  4870                           
  4871                           ;main.c: 185:     SPBRGH = 0;
  4872   001EF0  0E00               	movlw	0
  4873   001EF2  6EB0               	movwf	176,c	;volatile
  4874   001EF4                     
  4875                           ;main.c: 186:     BAUDCONbits.BRG16 = 1;
  4876   001EF4  86B8               	bsf	184,3,c	;volatile
  4877   001EF6                     
  4878                           ;main.c: 187:     TXSTAbits.BRGH = 1;
  4879   001EF6  84AC               	bsf	172,2,c	;volatile
  4880   001EF8                     
  4881                           ;main.c: 188:     TXSTAbits.SYNC = 0;
  4882   001EF8  98AC               	bcf	172,4,c	;volatile
  4883   001EFA                     
  4884                           ;main.c: 189:     TXSTAbits.TXEN = 1;
  4885   001EFA  8AAC               	bsf	172,5,c	;volatile
  4886   001EFC                     
  4887                           ;main.c: 190:     RCSTAbits.SPEN = 1;
  4888   001EFC  8EAB               	bsf	171,7,c	;volatile
  4889   001EFE                     
  4890                           ;main.c: 191:     RCSTAbits.CREN = 1;
  4891   001EFE  88AB               	bsf	171,4,c	;volatile
  4892   001F00  0012               	return		;funcret
  4893   001F02                     __end_of_initUART:
  4894                           	callstack 0
  4895                           
  4896 ;; *************** function _init *****************
  4897 ;; Defined at:
  4898 ;;		line 194 in file "main.c"
  4899 ;; Parameters:    Size  Location     Type
  4900 ;;		None
  4901 ;; Auto vars:     Size  Location     Type
  4902 ;;		None
  4903 ;; Return value:  Size  Location     Type
  4904 ;;                  1    wreg      void 
  4905 ;; Registers used:
  4906 ;;		wreg, status,2
  4907 ;; Tracked objects:
  4908 ;;		On entry : 0/0
  4909 ;;		On exit  : 0/0
  4910 ;;		Unchanged: 0/0
  4911 ;; Data sizes:     COMRAM   BANK0   BANK1   BANK2   BANK3   BANK4   BANK5
  4912 ;;      Params:         0       0       0       0       0       0       0
  4913 ;;      Locals:         0       0       0       0       0       0       0
  4914 ;;      Temps:          0       0       0       0       0       0       0
  4915 ;;      Totals:         0       0       0       0       0       0       0
  4916 ;;Total ram usage:        0 bytes
  4917 ;; Hardware stack levels used: 1
  4918 ;; Hardware stack levels required when called: 1
  4919 ;; This function calls:
  4920 ;;		Nothing
  4921 ;; This function is called by:
  4922 ;;		_main
  4923 ;; This function uses a non-reentrant model
  4924 ;;
  4925                           
  4926                           	psect	text21
  4927   001E1A                     __ptext21:
  4928                           	callstack 0
  4929   001E1A                     _init:
  4930                           	callstack 29
  4931   001E1A                     
  4932                           ;main.c: 195:     ADCON1 = 0x0F;
  4933   001E1A  0E0F               	movlw	15
  4934   001E1C  6EC1               	movwf	193,c	;volatile
  4935                           
  4936                           ;main.c: 196:     TRISD = 0x00;
  4937   001E1E  0E00               	movlw	0
  4938   001E20  6E95               	movwf	149,c	;volatile
  4939                           
  4940                           ;main.c: 197:     PORTD = 0x00;
  4941   001E22  0E00               	movlw	0
  4942   001E24  6E83               	movwf	131,c	;volatile
  4943   001E26                     
  4944                           ;main.c: 199:     TRISB = 0xFF;
  4945   001E26  6893               	setf	147,c	;volatile
  4946   001E28                     
  4947                           ;main.c: 200:     TRISCbits.RC2 = 0;
  4948   001E28  9494               	bcf	148,2,c	;volatile
  4949   001E2A                     
  4950                           ;main.c: 201:     INTCON2bits.RBPU = 0;
  4951   001E2A  9EF1               	bcf	241,7,c	;volatile
  4952   001E2C                     
  4953                           ;main.c: 203:     RCONbits.IPEN = 0;
  4954   001E2C  9ED0               	bcf	208,7,c	;volatile
  4955   001E2E                     
  4956                           ;main.c: 205:     INTCONbits.INT0IF = 0;
  4957   001E2E  92F2               	bcf	242,1,c	;volatile
  4958   001E30                     
  4959                           ;main.c: 206:     INTCON3bits.INT1IF = 0;
  4960   001E30  90F0               	bcf	240,0,c	;volatile
  4961   001E32                     
  4962                           ;main.c: 209:     INTCONbits.RBIE = 1;
  4963   001E32  86F2               	bsf	242,3,c	;volatile
  4964   001E34                     
  4965                           ;main.c: 211:     INTCON2bits.INTEDG0 = 0;
  4966   001E34  9CF1               	bcf	241,6,c	;volatile
  4967   001E36                     
  4968                           ;main.c: 212:     INTCON2bits.INTEDG1 = 0;
  4969   001E36  9AF1               	bcf	241,5,c	;volatile
  4970   001E38                     
  4971                           ;main.c: 214:     INTCONbits.INT0IE = 1;
  4972   001E38  88F2               	bsf	242,4,c	;volatile
  4973   001E3A                     
  4974                           ;main.c: 215:     INTCON3bits.INT1IE = 1;
  4975   001E3A  86F0               	bsf	240,3,c	;volatile
  4976   001E3C                     
  4977                           ;main.c: 216:     INTCONbits.GIE = 1;
  4978   001E3C  8EF2               	bsf	242,7,c	;volatile
  4979   001E3E                     
  4980                           ;main.c: 219:     T0CONbits.T08BIT = 0;
  4981   001E3E  9CD5               	bcf	213,6,c	;volatile
  4982   001E40                     
  4983                           ;main.c: 220:     T0CONbits.T0CS = 0;
  4984   001E40  9AD5               	bcf	213,5,c	;volatile
  4985   001E42                     
  4986                           ;main.c: 221:     T0CONbits.PSA = 1;
  4987   001E42  86D5               	bsf	213,3,c	;volatile
  4988   001E44                     
  4989                           ;main.c: 223:     T0CONbits.TMR0ON = 1;
  4990   001E44  8ED5               	bsf	213,7,c	;volatile
  4991                           
  4992                           ;main.c: 225:     TMR0H = 0xF8;
  4993   001E46  0EF8               	movlw	248
  4994   001E48  6ED7               	movwf	215,c	;volatile
  4995                           
  4996                           ;main.c: 226:     TMR0L = 0x47;
  4997   001E4A  0E47               	movlw	71
  4998   001E4C  6ED6               	movwf	214,c	;volatile
  4999   001E4E                     
  5000                           ;main.c: 228:     INTCONbits.TMR0IF = 0;
  5001   001E4E  94F2               	bcf	242,2,c	;volatile
  5002   001E50                     
  5003                           ;main.c: 229:     INTCONbits.TMR0IE = 1;
  5004   001E50  8AF2               	bsf	242,5,c	;volatile
  5005   001E52  0012               	return		;funcret
  5006   001E54                     __end_of_init:
  5007                           	callstack 0
  5008                           
  5009 ;; *************** function _interruption *****************
  5010 ;; Defined at:
  5011 ;;		line 39 in file "main.c"
  5012 ;; Parameters:    Size  Location     Type
  5013 ;;		None
  5014 ;; Auto vars:     Size  Location     Type
  5015 ;;  i               2    8[COMRAM] int 
  5016 ;;  i               2    6[COMRAM] int 
  5017 ;;  i               2    4[COMRAM] int 
  5018 ;;  i               2    2[COMRAM] int 
  5019 ;; Return value:  Size  Location     Type
  5020 ;;                  1    wreg      void 
  5021 ;; Registers used:
  5022 ;;		wreg, status,2, status,0
  5023 ;; Tracked objects:
  5024 ;;		On entry : 0/0
  5025 ;;		On exit  : 0/0
  5026 ;;		Unchanged: 0/0
  5027 ;; Data sizes:     COMRAM   BANK0   BANK1   BANK2   BANK3   BANK4   BANK5
  5028 ;;      Params:         0       0       0       0       0       0       0
  5029 ;;      Locals:         8       0       0       0       0       0       0
  5030 ;;      Temps:          2       0       0       0       0       0       0
  5031 ;;      Totals:        10       0       0       0       0       0       0
  5032 ;;Total ram usage:       10 bytes
  5033 ;; Hardware stack levels used: 1
  5034 ;; This function calls:
  5035 ;;		Nothing
  5036 ;; This function is called by:
  5037 ;;		Interrupt level 2
  5038 ;; This function uses a non-reentrant model
  5039 ;;
  5040                           
  5041                           	psect	intcode
  5042   000008                     __pintcode:
  5043                           	callstack 0
  5044   000008                     _interruption:
  5045                           	callstack 22
  5046                           
  5047                           ;incstack = 0
  5048   000008  8271               	bsf	int$flags,1,c	;set compiler interrupt flag (level 2)
  5049   00000A  ED27  F008         	call	int_func,f	;refresh shadow registers
  5050                           
  5051                           	psect	intcode_body
  5052   00104E                     __pintcode_body:
  5053                           	callstack 22
  5054   00104E                     int_func:
  5055                           	callstack 22
  5056   00104E  0006               	pop		; remove dummy address from shadow register refresh
  5057   001050                     
  5058                           ;main.c: 41:     if (INTCONbits.TMR0IF) {
  5059   001050  A4F2               	btfss	242,2,c	;volatile
  5060   001052  EF2D  F008         	goto	i2u166_41
  5061   001056  EF2F  F008         	goto	i2u166_40
  5062   00105A                     i2u166_41:
  5063   00105A  EF3E  F008         	goto	i2l2373
  5064   00105E                     i2u166_40:
  5065   00105E                     
  5066                           ;main.c: 42:         TMR0H = 0xF8;
  5067   00105E  0EF8               	movlw	248
  5068   001060  6ED7               	movwf	215,c	;volatile
  5069                           
  5070                           ;main.c: 43:         TMR0L = 0x47;
  5071   001062  0E47               	movlw	71
  5072   001064  6ED6               	movwf	214,c	;volatile
  5073   001066                     
  5074                           ;main.c: 45:         MILI_CNT++;
  5075   001066  0E01               	movlw	1
  5076   001068  2660               	addwf	_MILI_CNT^0,f,c
  5077   00106A  0E00               	movlw	0
  5078   00106C  2261               	addwfc	(_MILI_CNT+1)^0,f,c
  5079   00106E  2262               	addwfc	(_MILI_CNT+2)^0,f,c
  5080   001070  2263               	addwfc	(_MILI_CNT+3)^0,f,c
  5081   001072  2264               	addwfc	(_MILI_CNT+4)^0,f,c
  5082   001074  2265               	addwfc	(_MILI_CNT+5)^0,f,c
  5083   001076  2266               	addwfc	(_MILI_CNT+6)^0,f,c
  5084   001078  2267               	addwfc	(_MILI_CNT+7)^0,f,c
  5085   00107A                     
  5086                           ;main.c: 47:         INTCONbits.TMR0IF = 0;
  5087   00107A  94F2               	bcf	242,2,c	;volatile
  5088   00107C                     i2l2373:
  5089                           
  5090                           ;main.c: 50:     if (INTCONbits.RBIF == 0x01 && INTCONbits.RBIE == 1) {
  5091   00107C  A0F2               	btfss	242,0,c	;volatile
  5092   00107E  EF43  F008         	goto	i2u167_41
  5093   001082  EF45  F008         	goto	i2u167_40
  5094   001086                     i2u167_41:
  5095   001086  EF57  F009         	goto	i2l96
  5096   00108A                     i2u167_40:
  5097   00108A  A6F2               	btfss	242,3,c	;volatile
  5098   00108C  EF4A  F008         	goto	i2u168_41
  5099   001090  EF4C  F008         	goto	i2u168_40
  5100   001094                     i2u168_41:
  5101   001094  EF57  F009         	goto	i2l96
  5102   001098                     i2u168_40:
  5103   001098                     
  5104                           ;main.c: 51:         if (PORTBbits.RB5 == 0)
  5105   001098  BA81               	btfsc	129,5,c	;volatile
  5106   00109A  EF51  F008         	goto	i2u169_41
  5107   00109E  EF53  F008         	goto	i2u169_40
  5108   0010A2                     i2u169_41:
  5109   0010A2  EF92  F008         	goto	i2l77
  5110   0010A6                     i2u169_40:
  5111   0010A6                     
  5112                           ;main.c: 52:         {;main.c: 53:             _delay((unsigned long)((50)*(16000000/400
      +                          0.0)));
  5113   0010A6  0E02               	movlw	2
  5114   0010A8  6E02               	movwf	(??_interruption+1)^0,c
  5115   0010AA  0E04               	movlw	4
  5116   0010AC  6E01               	movwf	??_interruption^0,c
  5117   0010AE  0EBA               	movlw	186
  5118   0010B0                     i2u259_47:
  5119   0010B0  2EE8               	decfsz	wreg,f,c
  5120   0010B2  D7FE               	bra	i2u259_47
  5121   0010B4  2E01               	decfsz	??_interruption^0,f,c
  5122   0010B6  D7FC               	bra	i2u259_47
  5123   0010B8  2E02               	decfsz	(??_interruption+1)^0,f,c
  5124   0010BA  D7FA               	bra	i2u259_47
  5125   0010BC  D000               	nop2	
  5126   0010BE                     
  5127                           ;main.c: 54:             if (PORTBbits.RB5 == 0) {
  5128   0010BE  BA81               	btfsc	129,5,c	;volatile
  5129   0010C0  EF64  F008         	goto	i2u170_41
  5130   0010C4  EF66  F008         	goto	i2u170_40
  5131   0010C8                     i2u170_41:
  5132   0010C8  EF56  F009         	goto	i2l81
  5133   0010CC                     i2u170_40:
  5134   0010CC                     
  5135                           ;main.c: 55:                 pressedBTN1 = 1;
  5136   0010CC  0E00               	movlw	0
  5137   0010CE  0100               	movlb	0	; () banked
  5138   0010D0  6FD4               	movwf	(_pressedBTN1+1)& (0+255),b
  5139   0010D2  0E01               	movlw	1
  5140   0010D4  6FD3               	movwf	_pressedBTN1& (0+255),b
  5141   0010D6                     
  5142                           ; BSR set to: 0
  5143                           ;main.c: 56:                 PORTDbits.RD0 = 1;
  5144   0010D6  8083               	bsf	131,0,c	;volatile
  5145                           
  5146                           ;main.c: 57:                 for (int i = 0; i < 255; i++) {
  5147   0010D8  0E00               	movlw	0
  5148   0010DA  6E04               	movwf	(interruption@i+1)^0,c
  5149   0010DC  0E00               	movlw	0
  5150   0010DE  6E03               	movwf	interruption@i^0,c
  5151   0010E0                     i2l79:
  5152                           
  5153                           ;main.c: 58:                     PORTCbits.RC2 = 1;
  5154   0010E0  8482               	bsf	130,2,c	;volatile
  5155   0010E2                     
  5156                           ;main.c: 59:                     _delay((unsigned long)((500)*(16000000/4000000.0)));
  5157   0010E2  0E03               	movlw	3
  5158   0010E4  6E01               	movwf	??_interruption^0,c
  5159   0010E6  0E98               	movlw	152
  5160   0010E8                     i2u260_47:
  5161   0010E8  2EE8               	decfsz	wreg,f,c
  5162   0010EA  D7FE               	bra	i2u260_47
  5163   0010EC  2E01               	decfsz	??_interruption^0,f,c
  5164   0010EE  D7FC               	bra	i2u260_47
  5165   0010F0                     
  5166                           ;main.c: 60:                     PORTCbits.RC2 = 0;
  5167   0010F0  9482               	bcf	130,2,c	;volatile
  5168                           
  5169                           ;main.c: 61:                     _delay((unsigned long)((500)*(16000000/4000000.0)));
  5170   0010F2  0E03               	movlw	3
  5171   0010F4  6E01               	movwf	??_interruption^0,c
  5172   0010F6  0E98               	movlw	152
  5173   0010F8                     i2u261_47:
  5174   0010F8  2EE8               	decfsz	wreg,f,c
  5175   0010FA  D7FE               	bra	i2u261_47
  5176   0010FC  2E01               	decfsz	??_interruption^0,f,c
  5177   0010FE  D7FC               	bra	i2u261_47
  5178   001100                     
  5179                           ;main.c: 62:                 }
  5180   001100  4A03               	infsnz	interruption@i^0,f,c
  5181   001102  2A04               	incf	(interruption@i+1)^0,f,c
  5182   001104  BE04               	btfsc	(interruption@i+1)^0,7,c
  5183   001106  EF8D  F008         	goto	i2u171_41
  5184   00110A  5004               	movf	(interruption@i+1)^0,w,c
  5185   00110C  E108               	bnz	i2u171_40
  5186   00110E  2803               	incf	interruption@i^0,w,c
  5187   001110  A0D8               	btfss	status,0,c
  5188   001112  EF8D  F008         	goto	i2u171_41
  5189   001116  EF8F  F008         	goto	i2u171_40
  5190   00111A                     i2u171_41:
  5191   00111A  EF70  F008         	goto	i2l79
  5192   00111E                     i2u171_40:
  5193   00111E                     
  5194                           ;main.c: 63:                 PORTDbits.RD0 = 0;
  5195   00111E  9083               	bcf	131,0,c	;volatile
  5196   001120  EF56  F009         	goto	i2l81
  5197   001124                     i2l77:
  5198   001124  B881               	btfsc	129,4,c	;volatile
  5199   001126  EF97  F008         	goto	i2u172_41
  5200   00112A  EF99  F008         	goto	i2u172_40
  5201   00112E                     i2u172_41:
  5202   00112E  EFD8  F008         	goto	i2l82
  5203   001132                     i2u172_40:
  5204   001132                     
  5205                           ;main.c: 66:             _delay((unsigned long)((50)*(16000000/4000.0)));
  5206   001132  0E02               	movlw	2
  5207   001134  6E02               	movwf	(??_interruption+1)^0,c
  5208   001136  0E04               	movlw	4
  5209   001138  6E01               	movwf	??_interruption^0,c
  5210   00113A  0EBA               	movlw	186
  5211   00113C                     i2u262_47:
  5212   00113C  2EE8               	decfsz	wreg,f,c
  5213   00113E  D7FE               	bra	i2u262_47
  5214   001140  2E01               	decfsz	??_interruption^0,f,c
  5215   001142  D7FC               	bra	i2u262_47
  5216   001144  2E02               	decfsz	(??_interruption+1)^0,f,c
  5217   001146  D7FA               	bra	i2u262_47
  5218   001148  D000               	nop2	
  5219   00114A                     
  5220                           ;main.c: 67:             if (PORTBbits.RB4 == 0) {
  5221   00114A  B881               	btfsc	129,4,c	;volatile
  5222   00114C  EFAA  F008         	goto	i2u173_41
  5223   001150  EFAC  F008         	goto	i2u173_40
  5224   001154                     i2u173_41:
  5225   001154  EF56  F009         	goto	i2l81
  5226   001158                     i2u173_40:
  5227   001158                     
  5228                           ;main.c: 68:                 pressedBTN2 = 1;
  5229   001158  0E00               	movlw	0
  5230   00115A  0100               	movlb	0	; () banked
  5231   00115C  6FD2               	movwf	(_pressedBTN2+1)& (0+255),b
  5232   00115E  0E01               	movlw	1
  5233   001160  6FD1               	movwf	_pressedBTN2& (0+255),b
  5234   001162                     
  5235                           ; BSR set to: 0
  5236                           ;main.c: 69:                 PORTDbits.RD1 = 1;
  5237   001162  8283               	bsf	131,1,c	;volatile
  5238                           
  5239                           ;main.c: 70:                 for (int i = 0; i < 255; i++) {
  5240   001164  0E00               	movlw	0
  5241   001166  6E06               	movwf	(interruption@i_729+1)^0,c
  5242   001168  0E00               	movlw	0
  5243   00116A  6E05               	movwf	interruption@i_729^0,c
  5244   00116C                     i2l84:
  5245                           
  5246                           ;main.c: 71:                     PORTCbits.RC2 = 1;
  5247   00116C  8482               	bsf	130,2,c	;volatile
  5248   00116E                     
  5249                           ;main.c: 72:                     _delay((unsigned long)((400)*(16000000/4000000.0)));
  5250   00116E  0EE4               	movlw	228
  5251   001170                     i2u263_47:
  5252   001170  D000               	nop2	
  5253   001172  D000               	nop2	
  5254   001174  2EE8               	decfsz	wreg,f,c
  5255   001176  D7FC               	bra	i2u263_47
  5256   001178  D000               	nop2	
  5257   00117A  D000               	nop2	
  5258   00117C                     
  5259                           ;main.c: 73:                     PORTCbits.RC2 = 0;
  5260   00117C  9482               	bcf	130,2,c	;volatile
  5261                           
  5262                           ;main.c: 74:                     _delay((unsigned long)((400)*(16000000/4000000.0)));
  5263   00117E  0EE4               	movlw	228
  5264   001180                     i2u264_47:
  5265   001180  D000               	nop2	
  5266   001182  D000               	nop2	
  5267   001184  2EE8               	decfsz	wreg,f,c
  5268   001186  D7FC               	bra	i2u264_47
  5269   001188  D000               	nop2	
  5270   00118A  D000               	nop2	
  5271   00118C                     
  5272                           ;main.c: 75:                 }
  5273   00118C  4A05               	infsnz	interruption@i_729^0,f,c
  5274   00118E  2A06               	incf	(interruption@i_729+1)^0,f,c
  5275   001190  BE06               	btfsc	(interruption@i_729+1)^0,7,c
  5276   001192  EFD3  F008         	goto	i2u174_41
  5277   001196  5006               	movf	(interruption@i_729+1)^0,w,c
  5278   001198  E108               	bnz	i2u174_40
  5279   00119A  2805               	incf	interruption@i_729^0,w,c
  5280   00119C  A0D8               	btfss	status,0,c
  5281   00119E  EFD3  F008         	goto	i2u174_41
  5282   0011A2  EFD5  F008         	goto	i2u174_40
  5283   0011A6                     i2u174_41:
  5284   0011A6  EFB6  F008         	goto	i2l84
  5285   0011AA                     i2u174_40:
  5286   0011AA                     
  5287                           ;main.c: 76:                 PORTDbits.RD1 = 0;
  5288   0011AA  9283               	bcf	131,1,c	;volatile
  5289   0011AC  EF56  F009         	goto	i2l81
  5290   0011B0                     i2l82:
  5291   0011B0  BE81               	btfsc	129,7,c	;volatile
  5292   0011B2  EFDD  F008         	goto	i2u175_41
  5293   0011B6  EFDF  F008         	goto	i2u175_40
  5294   0011BA                     i2u175_41:
  5295   0011BA  EF18  F009         	goto	i2l87
  5296   0011BE                     i2u175_40:
  5297   0011BE                     
  5298                           ;main.c: 79:             _delay((unsigned long)((50)*(16000000/4000.0)));
  5299   0011BE  0E02               	movlw	2
  5300   0011C0  6E02               	movwf	(??_interruption+1)^0,c
  5301   0011C2  0E04               	movlw	4
  5302   0011C4  6E01               	movwf	??_interruption^0,c
  5303   0011C6  0EBA               	movlw	186
  5304   0011C8                     i2u265_47:
  5305   0011C8  2EE8               	decfsz	wreg,f,c
  5306   0011CA  D7FE               	bra	i2u265_47
  5307   0011CC  2E01               	decfsz	??_interruption^0,f,c
  5308   0011CE  D7FC               	bra	i2u265_47
  5309   0011D0  2E02               	decfsz	(??_interruption+1)^0,f,c
  5310   0011D2  D7FA               	bra	i2u265_47
  5311   0011D4  D000               	nop2	
  5312   0011D6                     
  5313                           ;main.c: 80:             if (PORTBbits.RB7 == 0) {
  5314   0011D6  BE81               	btfsc	129,7,c	;volatile
  5315   0011D8  EFF0  F008         	goto	i2u176_41
  5316   0011DC  EFF2  F008         	goto	i2u176_40
  5317   0011E0                     i2u176_41:
  5318   0011E0  EF56  F009         	goto	i2l81
  5319   0011E4                     i2u176_40:
  5320   0011E4                     
  5321                           ;main.c: 81:                 pressedBTN3 = 1;
  5322   0011E4  0E00               	movlw	0
  5323   0011E6  0100               	movlb	0	; () banked
  5324   0011E8  6FD0               	movwf	(_pressedBTN3+1)& (0+255),b
  5325   0011EA  0E01               	movlw	1
  5326   0011EC  6FCF               	movwf	_pressedBTN3& (0+255),b
  5327   0011EE                     
  5328                           ; BSR set to: 0
  5329                           ;main.c: 82:                 PORTDbits.RD2 = 1;
  5330   0011EE  8483               	bsf	131,2,c	;volatile
  5331                           
  5332                           ;main.c: 83:                 for (int i = 0; i < 255; i++) {
  5333   0011F0  0E00               	movlw	0
  5334   0011F2  6E08               	movwf	(interruption@i_730+1)^0,c
  5335   0011F4  0E00               	movlw	0
  5336   0011F6  6E07               	movwf	interruption@i_730^0,c
  5337   0011F8                     i2l89:
  5338                           
  5339                           ;main.c: 84:                     PORTCbits.RC2 = 1;
  5340   0011F8  8482               	bsf	130,2,c	;volatile
  5341   0011FA                     
  5342                           ;main.c: 85:                     _delay((unsigned long)((300)*(16000000/4000000.0)));
  5343   0011FA  0EF0               	movlw	240
  5344   0011FC                     i2u266_47:
  5345   0011FC  D000               	nop2	
  5346   0011FE  2EE8               	decfsz	wreg,f,c
  5347   001200  D7FD               	bra	i2u266_47
  5348   001202                     
  5349                           ;main.c: 86:                     PORTCbits.RC2 = 0;
  5350   001202  9482               	bcf	130,2,c	;volatile
  5351                           
  5352                           ;main.c: 87:                     _delay((unsigned long)((300)*(16000000/4000000.0)));
  5353   001204  0EF0               	movlw	240
  5354   001206                     i2u267_47:
  5355   001206  D000               	nop2	
  5356   001208  2EE8               	decfsz	wreg,f,c
  5357   00120A  D7FD               	bra	i2u267_47
  5358   00120C                     
  5359                           ;main.c: 88:                 }
  5360   00120C  4A07               	infsnz	interruption@i_730^0,f,c
  5361   00120E  2A08               	incf	(interruption@i_730+1)^0,f,c
  5362   001210  BE08               	btfsc	(interruption@i_730+1)^0,7,c
  5363   001212  EF13  F009         	goto	i2u177_41
  5364   001216  5008               	movf	(interruption@i_730+1)^0,w,c
  5365   001218  E108               	bnz	i2u177_40
  5366   00121A  2807               	incf	interruption@i_730^0,w,c
  5367   00121C  A0D8               	btfss	status,0,c
  5368   00121E  EF13  F009         	goto	i2u177_41
  5369   001222  EF15  F009         	goto	i2u177_40
  5370   001226                     i2u177_41:
  5371   001226  EFFC  F008         	goto	i2l89
  5372   00122A                     i2u177_40:
  5373   00122A                     
  5374                           ;main.c: 89:                 PORTDbits.RD2 = 0;
  5375   00122A  9483               	bcf	131,2,c	;volatile
  5376   00122C  EF56  F009         	goto	i2l81
  5377   001230                     i2l87:
  5378   001230  BC81               	btfsc	129,6,c	;volatile
  5379   001232  EF1D  F009         	goto	i2u178_41
  5380   001236  EF1F  F009         	goto	i2u178_40
  5381   00123A                     i2u178_41:
  5382   00123A  EF56  F009         	goto	i2l81
  5383   00123E                     i2u178_40:
  5384   00123E                     
  5385                           ;main.c: 92:             _delay((unsigned long)((50)*(16000000/4000.0)));
  5386   00123E  0E02               	movlw	2
  5387   001240  6E02               	movwf	(??_interruption+1)^0,c
  5388   001242  0E04               	movlw	4
  5389   001244  6E01               	movwf	??_interruption^0,c
  5390   001246  0EBA               	movlw	186
  5391   001248                     i2u268_47:
  5392   001248  2EE8               	decfsz	wreg,f,c
  5393   00124A  D7FE               	bra	i2u268_47
  5394   00124C  2E01               	decfsz	??_interruption^0,f,c
  5395   00124E  D7FC               	bra	i2u268_47
  5396   001250  2E02               	decfsz	(??_interruption+1)^0,f,c
  5397   001252  D7FA               	bra	i2u268_47
  5398   001254  D000               	nop2	
  5399   001256                     
  5400                           ;main.c: 93:             if (PORTBbits.RB6 == 0) {
  5401   001256  BC81               	btfsc	129,6,c	;volatile
  5402   001258  EF30  F009         	goto	i2u179_41
  5403   00125C  EF32  F009         	goto	i2u179_40
  5404   001260                     i2u179_41:
  5405   001260  EF56  F009         	goto	i2l81
  5406   001264                     i2u179_40:
  5407   001264                     
  5408                           ;main.c: 94:                 pressedBTN4 = 1;
  5409   001264  0E00               	movlw	0
  5410   001266  0100               	movlb	0	; () banked
  5411   001268  6FCE               	movwf	(_pressedBTN4+1)& (0+255),b
  5412   00126A  0E01               	movlw	1
  5413   00126C  6FCD               	movwf	_pressedBTN4& (0+255),b
  5414   00126E                     
  5415                           ; BSR set to: 0
  5416                           ;main.c: 95:                 PORTDbits.RD3 = 1;
  5417   00126E  8683               	bsf	131,3,c	;volatile
  5418                           
  5419                           ;main.c: 96:                 for (int i = 0; i < 255; i++) {
  5420   001270  0E00               	movlw	0
  5421   001272  6E0A               	movwf	(interruption@i_731+1)^0,c
  5422   001274  0E00               	movlw	0
  5423   001276  6E09               	movwf	interruption@i_731^0,c
  5424   001278                     i2l94:
  5425                           
  5426                           ;main.c: 97:                     PORTCbits.RC2 = 1;
  5427   001278  8482               	bsf	130,2,c	;volatile
  5428   00127A                     
  5429                           ;main.c: 98:                     _delay((unsigned long)((200)*(16000000/4000000.0)));
  5430   00127A  0EA0               	movlw	160
  5431   00127C                     i2u269_47:
  5432   00127C  D000               	nop2	
  5433   00127E  2EE8               	decfsz	wreg,f,c
  5434   001280  D7FD               	bra	i2u269_47
  5435   001282                     
  5436                           ;main.c: 99:                     PORTCbits.RC2 = 0;
  5437   001282  9482               	bcf	130,2,c	;volatile
  5438                           
  5439                           ;main.c: 100:                     _delay((unsigned long)((200)*(16000000/4000000.0)));
  5440   001284  0EA0               	movlw	160
  5441   001286                     i2u270_47:
  5442   001286  D000               	nop2	
  5443   001288  2EE8               	decfsz	wreg,f,c
  5444   00128A  D7FD               	bra	i2u270_47
  5445   00128C                     
  5446                           ;main.c: 101:                 }
  5447   00128C  4A09               	infsnz	interruption@i_731^0,f,c
  5448   00128E  2A0A               	incf	(interruption@i_731+1)^0,f,c
  5449   001290  BE0A               	btfsc	(interruption@i_731+1)^0,7,c
  5450   001292  EF53  F009         	goto	i2u180_41
  5451   001296  500A               	movf	(interruption@i_731+1)^0,w,c
  5452   001298  E108               	bnz	i2u180_40
  5453   00129A  2809               	incf	interruption@i_731^0,w,c
  5454   00129C  A0D8               	btfss	status,0,c
  5455   00129E  EF53  F009         	goto	i2u180_41
  5456   0012A2  EF55  F009         	goto	i2u180_40
  5457   0012A6                     i2u180_41:
  5458   0012A6  EF3C  F009         	goto	i2l94
  5459   0012AA                     i2u180_40:
  5460   0012AA                     
  5461                           ;main.c: 102:                 PORTDbits.RD3 = 0;
  5462   0012AA  9683               	bcf	131,3,c	;volatile
  5463   0012AC                     i2l81:
  5464                           
  5465                           ;main.c: 105:         INTCONbits.RBIF = 0;
  5466   0012AC  90F2               	bcf	242,0,c	;volatile
  5467   0012AE                     i2l96:
  5468   0012AE  9271               	bcf	int$flags,1,c	;clear compiler interrupt flag (level 2)
  5469   0012B0  0011               	retfie		f
  5470   0012B2                     __end_of_interruption:
  5471                           	callstack 0
  5472                           
  5473                           	psect	rparam
  5474   000000                     
  5475                           	psect	temp
  5476   000071                     btemp:
  5477                           	callstack 0
  5478   000071                     	ds	1
  5479   000000                     int$flags	set	btemp
  5480   000000                     wtemp8	set	btemp+1
  5481   000000                     ttemp5	set	btemp+1
  5482   000000                     ttemp6	set	btemp+4
  5483   000000                     ttemp7	set	btemp+8
  5484                           
  5485                           	psect	idloc
  5486                           
  5487                           ;Config register IDLOC0 @ 0x200000
  5488                           ;	unspecified, using default values
  5489   200000                     	org	2097152
  5490   200000  FF                 	db	255
  5491                           
  5492                           ;Config register IDLOC1 @ 0x200001
  5493                           ;	unspecified, using default values
  5494   200001                     	org	2097153
  5495   200001  FF                 	db	255
  5496                           
  5497                           ;Config register IDLOC2 @ 0x200002
  5498                           ;	unspecified, using default values
  5499   200002                     	org	2097154
  5500   200002  FF                 	db	255
  5501                           
  5502                           ;Config register IDLOC3 @ 0x200003
  5503                           ;	unspecified, using default values
  5504   200003                     	org	2097155
  5505   200003  FF                 	db	255
  5506                           
  5507                           ;Config register IDLOC4 @ 0x200004
  5508                           ;	unspecified, using default values
  5509   200004                     	org	2097156
  5510   200004  FF                 	db	255
  5511                           
  5512                           ;Config register IDLOC5 @ 0x200005
  5513                           ;	unspecified, using default values
  5514   200005                     	org	2097157
  5515   200005  FF                 	db	255
  5516                           
  5517                           ;Config register IDLOC6 @ 0x200006
  5518                           ;	unspecified, using default values
  5519   200006                     	org	2097158
  5520   200006  FF                 	db	255
  5521                           
  5522                           ;Config register IDLOC7 @ 0x200007
  5523                           ;	unspecified, using default values
  5524   200007                     	org	2097159
  5525   200007  FF                 	db	255
  5526                           
  5527                           	psect	config
  5528                           
  5529                           ; Padding undefined space
  5530   300000                     	org	3145728
  5531   300000  FF                 	db	255
  5532                           
  5533                           ;Config register CONFIG1H @ 0x300001
  5534                           ;	Oscillator Selection bits
  5535                           ;	OSC = XT, XT oscillator
  5536                           ;	Fail-Safe Clock Monitor Enable bit
  5537                           ;	FCMEN = 0x0, unprogrammed default
  5538                           ;	Internal/External Oscillator Switchover bit
  5539                           ;	IESO = 0x0, unprogrammed default
  5540   300001                     	org	3145729
  5541   300001  01                 	db	1
  5542                           
  5543                           ;Config register CONFIG2L @ 0x300002
  5544                           ;	Power-up Timer Enable bit
  5545                           ;	PWRT = 0x1, unprogrammed default
  5546                           ;	Brown-out Reset Enable bits
  5547                           ;	BOREN = OFF, Brown-out Reset disabled in hardware and software
  5548                           ;	Brown Out Reset Voltage bits
  5549                           ;	BORV = 0x3, unprogrammed default
  5550   300002                     	org	3145730
  5551   300002  19                 	db	25
  5552                           
  5553                           ;Config register CONFIG2H @ 0x300003
  5554                           ;	Watchdog Timer Enable bit
  5555                           ;	WDT = OFF, WDT disabled (control is placed on the SWDTEN bit)
  5556                           ;	Watchdog Timer Postscale Select bits
  5557                           ;	WDTPS = 0xF, unprogrammed default
  5558   300003                     	org	3145731
  5559   300003  1E                 	db	30
  5560                           
  5561                           ; Padding undefined space
  5562   300004                     	org	3145732
  5563   300004  FF                 	db	255
  5564                           
  5565                           ;Config register CONFIG3H @ 0x300005
  5566                           ;	unspecified, using default values
  5567                           ;	CCP2 MUX bit
  5568                           ;	CCP2MX = 0x1, unprogrammed default
  5569                           ;	PORTB A/D Enable bit
  5570                           ;	PBADEN = 0x1, unprogrammed default
  5571                           ;	Low-Power Timer1 Oscillator Enable bit
  5572                           ;	LPT1OSC = 0x0, unprogrammed default
  5573                           ;	MCLR Pin Enable bit
  5574                           ;	MCLRE = 0x1, unprogrammed default
  5575   300005                     	org	3145733
  5576   300005  83                 	db	131
  5577                           
  5578                           ;Config register CONFIG4L @ 0x300006
  5579                           ;	unspecified, using default values
  5580                           ;	Stack Full/Underflow Reset Enable bit
  5581                           ;	STVREN = 0x1, unprogrammed default
  5582                           ;	Single-Supply ICSP Enable bit
  5583                           ;	LVP = 0x1, unprogrammed default
  5584                           ;	Extended Instruction Set Enable bit
  5585                           ;	XINST = 0x0, unprogrammed default
  5586                           ;	Background Debugger Enable bit
  5587                           ;	DEBUG = 0x1, unprogrammed default
  5588   300006                     	org	3145734
  5589   300006  85                 	db	133
  5590                           
  5591                           ; Padding undefined space
  5592   300007                     	org	3145735
  5593   300007  FF                 	db	255
  5594                           
  5595                           ;Config register CONFIG5L @ 0x300008
  5596                           ;	unspecified, using default values
  5597                           ;	Code Protection bit
  5598                           ;	CP0 = 0x1, unprogrammed default
  5599                           ;	Code Protection bit
  5600                           ;	CP1 = 0x1, unprogrammed default
  5601                           ;	Code Protection bit
  5602                           ;	CP2 = 0x1, unprogrammed default
  5603                           ;	Code Protection bit
  5604                           ;	CP3 = 0x1, unprogrammed default
  5605   300008                     	org	3145736
  5606   300008  0F                 	db	15
  5607                           
  5608                           ;Config register CONFIG5H @ 0x300009
  5609                           ;	unspecified, using default values
  5610                           ;	Boot Block Code Protection bit
  5611                           ;	CPB = 0x1, unprogrammed default
  5612                           ;	Data EEPROM Code Protection bit
  5613                           ;	CPD = 0x1, unprogrammed default
  5614   300009                     	org	3145737
  5615   300009  C0                 	db	192
  5616                           
  5617                           ;Config register CONFIG6L @ 0x30000A
  5618                           ;	unspecified, using default values
  5619                           ;	Write Protection bit
  5620                           ;	WRT0 = 0x1, unprogrammed default
  5621                           ;	Write Protection bit
  5622                           ;	WRT1 = 0x1, unprogrammed default
  5623                           ;	Write Protection bit
  5624                           ;	WRT2 = 0x1, unprogrammed default
  5625                           ;	Write Protection bit
  5626                           ;	WRT3 = 0x1, unprogrammed default
  5627   30000A                     	org	3145738
  5628   30000A  0F                 	db	15
  5629                           
  5630                           ;Config register CONFIG6H @ 0x30000B
  5631                           ;	unspecified, using default values
  5632                           ;	Configuration Register Write Protection bit
  5633                           ;	WRTC = 0x1, unprogrammed default
  5634                           ;	Boot Block Write Protection bit
  5635                           ;	WRTB = 0x1, unprogrammed default
  5636                           ;	Data EEPROM Write Protection bit
  5637                           ;	WRTD = 0x1, unprogrammed default
  5638   30000B                     	org	3145739
  5639   30000B  E0                 	db	224
  5640                           
  5641                           ;Config register CONFIG7L @ 0x30000C
  5642                           ;	unspecified, using default values
  5643                           ;	Table Read Protection bit
  5644                           ;	EBTR0 = 0x1, unprogrammed default
  5645                           ;	Table Read Protection bit
  5646                           ;	EBTR1 = 0x1, unprogrammed default
  5647                           ;	Table Read Protection bit
  5648                           ;	EBTR2 = 0x1, unprogrammed default
  5649                           ;	Table Read Protection bit
  5650                           ;	EBTR3 = 0x1, unprogrammed default
  5651   30000C                     	org	3145740
  5652   30000C  0F                 	db	15
  5653                           
  5654                           ;Config register CONFIG7H @ 0x30000D
  5655                           ;	unspecified, using default values
  5656                           ;	Boot Block Table Read Protection bit
  5657                           ;	EBTRB = 0x1, unprogrammed default
  5658   30000D                     	org	3145741
  5659   30000D  40                 	db	64
  5660                           tosu	equ	0xFFF
  5661                           tosh	equ	0xFFE
  5662                           tosl	equ	0xFFD
  5663                           stkptr	equ	0xFFC
  5664                           pclatu	equ	0xFFB
  5665                           pclath	equ	0xFFA
  5666                           pcl	equ	0xFF9
  5667                           tblptru	equ	0xFF8
  5668                           tblptrh	equ	0xFF7
  5669                           tblptrl	equ	0xFF6
  5670                           tablat	equ	0xFF5
  5671                           prodh	equ	0xFF4
  5672                           prodl	equ	0xFF3
  5673                           indf0	equ	0xFEF
  5674                           postinc0	equ	0xFEE
  5675                           postdec0	equ	0xFED
  5676                           preinc0	equ	0xFEC
  5677                           plusw0	equ	0xFEB
  5678                           fsr0h	equ	0xFEA
  5679                           fsr0l	equ	0xFE9
  5680                           wreg	equ	0xFE8
  5681                           indf1	equ	0xFE7
  5682                           postinc1	equ	0xFE6
  5683                           postdec1	equ	0xFE5
  5684                           preinc1	equ	0xFE4
  5685                           plusw1	equ	0xFE3
  5686                           fsr1h	equ	0xFE2
  5687                           fsr1l	equ	0xFE1
  5688                           bsr	equ	0xFE0
  5689                           indf2	equ	0xFDF
  5690                           postinc2	equ	0xFDE
  5691                           postdec2	equ	0xFDD
  5692                           preinc2	equ	0xFDC
  5693                           plusw2	equ	0xFDB
  5694                           fsr2h	equ	0xFDA
  5695                           fsr2l	equ	0xFD9
  5696                           status	equ	0xFD8

Data Sizes:
    Strings     33
    Constant    0
    Data        0
    BSS         116
    Persistent  0
    Stack       0

Auto Spaces:
    Space          Size  Autos    Used
    COMRAM          126     87     112
    BANK0           128     75     118
    BANK1           256      0      48
    BANK2           256      0       0
    BANK3           256      0       0
    BANK4           256      0       0
    BANK5           256      0       0

Pointer List with Targets:

    fputs@s	PTR const unsigned char  size(2) Largest target is 32
		 -> dbuf(BANK0[32]), 

    fputs@fp	PTR struct _IO_FILE size(2) Largest target is 0
		 -> NULL(NULL[0]), 

    S1306$source	PTR const unsigned char  size(2) Largest target is 0

    fputc@fp...source	PTR const unsigned char  size(2) Largest target is 0

    S1306$buffer	PTR unsigned char  size(2) Largest target is 0

    fputc@fp...buffer	PTR unsigned char  size(2) Largest target is 0

    fputc@fp	PTR struct _IO_FILE size(2) Largest target is 0
		 -> NULL(NULL[0]), 

    vfprintf@ap	PTR PTR void  size(2) Largest target is 2
		 -> printf@ap(COMRAM[2]), 

    vfprintf@fp	PTR struct _IO_FILE size(2) Largest target is 0
		 -> NULL(NULL[0]), 

    vfprintf@fmt	PTR const unsigned char  size(2) Largest target is 13
		 -> STR_5(CODE[8]), STR_4(CODE[8]), STR_3(CODE[4]), STR_2(CODE[4]), 
		 -> STR_1(CODE[13]), 

    vfprintf@cfmt	PTR unsigned char  size(2) Largest target is 13
		 -> STR_5(CODE[8]), STR_4(CODE[8]), STR_3(CODE[4]), STR_2(CODE[4]), 
		 -> STR_1(CODE[13]), 

    vfpfcnvrt@fp	PTR struct _IO_FILE size(2) Largest target is 0
		 -> NULL(NULL[0]), 

    vfpfcnvrt@ap	PTR PTR void  size(2) Largest target is 2
		 -> printf@ap(COMRAM[2]), 

    vfpfcnvrt@cp	PTR unsigned char  size(2) Largest target is 13
		 -> STR_5(CODE[8]), STR_4(CODE[8]), STR_3(CODE[4]), STR_2(CODE[4]), 
		 -> STR_1(CODE[13]), 

    vfpfcnvrt@fmt	PTR PTR unsigned char  size(2) Largest target is 2
		 -> vfprintf@cfmt(COMRAM[2]), 

    S1346$vp	PTR void  size(2) Largest target is 0

    convarg.vp	PTR void  size(2) Largest target is 0

    dtoa@fp	PTR struct _IO_FILE size(2) Largest target is 0
		 -> NULL(NULL[0]), 

    pad@buf	PTR unsigned char  size(2) Largest target is 32
		 -> dbuf(BANK0[32]), 

    pad@fp	PTR struct _IO_FILE size(2) Largest target is 0
		 -> NULL(NULL[0]), 

    printf@fmt	PTR const unsigned char  size(2) Largest target is 13
		 -> STR_5(CODE[8]), STR_4(CODE[8]), STR_3(CODE[4]), STR_2(CODE[4]), 
		 -> STR_1(CODE[13]), 

    printf@ap	PTR void [1] size(2) Largest target is 2
		 -> ?_printf(COMRAM[2]), 

    sp__generate_random_sequence_easy	PTR int  size(2) Largest target is 8
		 -> generate_random_sequence_easy@array(COMRAM[8]), 


Critical Paths under _main in COMRAM

    _main->_printf
    _srand->_millis
    _rand->___lmul
    _printf->_vfprintf
    _vfprintf->_vfpfcnvrt
    _vfpfcnvrt->_dtoa
    _dtoa->_pad
    _pad->_fputs
    _fputs->_fputc
    _fputc->_putch
    _abs->___awmod

Critical Paths under _interruption in COMRAM

    None.

Critical Paths under _main in BANK0

    None.

Critical Paths under _interruption in BANK0

    None.

Critical Paths under _main in BANK1

    None.

Critical Paths under _interruption in BANK1

    None.

Critical Paths under _main in BANK2

    None.

Critical Paths under _interruption in BANK2

    None.

Critical Paths under _main in BANK3

    None.

Critical Paths under _interruption in BANK3

    None.

Critical Paths under _main in BANK4

    None.

Critical Paths under _interruption in BANK4

    None.

Critical Paths under _main in BANK5

    None.

Critical Paths under _interruption in BANK5

    None.

Call Graph Tables:

 ---------------------------------------------------------------------------------
 (Depth) Function   	        Calls       Base Space   Used Autos Params    Refs
 ---------------------------------------------------------------------------------
 (0) _main                                                87    87      0    9765
                                             79 COMRAM     8     8      0
                                              0 BANK0     75    75      0
                               _init
                           _initUART
                             _millis
                             _printf
                               _rand
                   _reproduz_derrota
                   _reproduz_som_led
                   _reproduz_vitoria
                             _setLED
                              _srand
 ---------------------------------------------------------------------------------
 (1) _srand                                                4     2      2      98
                                             18 COMRAM     4     2      2
                             _millis (ARG)
 ---------------------------------------------------------------------------------
 (1) _setLED                                               4     3      1     718
                                             10 COMRAM     4     3      1
 ---------------------------------------------------------------------------------
 (1) _reproduz_vitoria                                     9     9      0     184
                                             10 COMRAM     9     9      0
 ---------------------------------------------------------------------------------
 (1) _reproduz_som_led                                    11    11      0     206
                                             10 COMRAM    11    11      0
 ---------------------------------------------------------------------------------
 (1) _reproduz_derrota                                     8     8      0     138
                                             10 COMRAM     8     8      0
 ---------------------------------------------------------------------------------
 (1) _rand                                                 6     4      2     370
                                             22 COMRAM     6     4      2
                             ___lmul
 ---------------------------------------------------------------------------------
 (2) ___lmul                                              12     4      8     370
                                             10 COMRAM    12     4      8
 ---------------------------------------------------------------------------------
 (1) _printf                                               8     4      4    5696
                                             73 COMRAM     6     2      4
                           _vfprintf
 ---------------------------------------------------------------------------------
 (2) _vfprintf                                             8     2      6    5262
                                             65 COMRAM     8     2      6
                          _vfpfcnvrt
 ---------------------------------------------------------------------------------
 (3) _vfpfcnvrt                                           19    13      6    4912
                                             51 COMRAM    14     8      6
                               _dtoa
                              _fputc
 ---------------------------------------------------------------------------------
 (4) _dtoa                                                13     9      4    3670
                                             38 COMRAM    13     9      4
                            ___awdiv
                            ___awmod
                                _abs
                                _pad
 ---------------------------------------------------------------------------------
 (5) _pad                                                 11     5      6    2043
                                             27 COMRAM    11     5      6
                              _fputc
                              _fputs
 ---------------------------------------------------------------------------------
 (6) _fputs                                                7     3      4     953
                                             20 COMRAM     7     3      4
                              _fputc
 ---------------------------------------------------------------------------------
 (4) _fputc                                                9     5      4     704
                                             11 COMRAM     9     5      4
                              _putch
 ---------------------------------------------------------------------------------
 (5) _putch                                                1     1      0      22
                                             10 COMRAM     1     1      0
 ---------------------------------------------------------------------------------
 (5) _abs                                                  4     2      2     142
                                             16 COMRAM     4     2      2
                            ___awmod (ARG)
 ---------------------------------------------------------------------------------
 (5) ___awmod                                              6     2      4     448
                                             10 COMRAM     6     2      4
 ---------------------------------------------------------------------------------
 (5) ___awdiv                                              8     4      4     452
                                             10 COMRAM     8     4      4
 ---------------------------------------------------------------------------------
 (1) _millis                                               8     0      8       0
                                             10 COMRAM     8     0      8
 ---------------------------------------------------------------------------------
 (1) _initUART                                             0     0      0       0
 ---------------------------------------------------------------------------------
 (1) _init                                                 0     0      0       0
 ---------------------------------------------------------------------------------
 Estimated maximum stack depth 6
 ---------------------------------------------------------------------------------
 (Depth) Function   	        Calls       Base Space   Used Autos Params    Refs
 ---------------------------------------------------------------------------------
 (9) _interruption                                        10    10      0     184
                                              0 COMRAM    10    10      0
 ---------------------------------------------------------------------------------
 Estimated maximum stack depth 9
 ---------------------------------------------------------------------------------

 Call Graph Graphs:

 _main (ROOT)
   _init
   _initUART
   _millis
   _printf
     _vfprintf
       _vfpfcnvrt
         _dtoa
           ___awdiv
           ___awmod
           _abs
             ___awmod (ARG)
           _pad
             _fputc
               _putch
             _fputs
               _fputc
         _fputc
   _rand
     ___lmul
   _reproduz_derrota
   _reproduz_som_led
   _reproduz_vitoria
   _setLED
   _srand
     _millis (ARG)

 _interruption (ROOT)

 Address spaces:
Name               Size   Autos  Total    Cost      Usage
BIGRAM             5FF      0       0      27        0.0%
EEDATA             100      0       0       0        0.0%
BITBANK5           100      0       0      14        0.0%
BANK5              100      0       0      15        0.0%
BITBANK4           100      0       0      12        0.0%
BANK4              100      0       0      13        0.0%
BITBANK3           100      0       0      10        0.0%
BANK3              100      0       0      11        0.0%
BITBANK2           100      0       0       8        0.0%
BANK2              100      0       0       9        0.0%
BITBANK1           100      0       0       6        0.0%
BANK1              100      0      30       7       18.8%
BITBANK0            80      0       0       4        0.0%
BANK0               80     4B      76       5       92.2%
BITCOMRAM           7E      0       0       0        0.0%
COMRAM              7E     57      70       1       88.9%
BITBIGSFRhlh        18      0       0      17        0.0%
BITBIGSFRlhhh       15      0       0      23        0.0%
BITBIGSFRlhhl        F      0       0      24        0.0%
BITBIGSFRhllhhh      E      0       0      19        0.0%
BITBIGSFRhh          D      0       0      16        0.0%
BITBIGSFRhllhhl      8      0       0      20        0.0%
BITBIGSFRhllhl       7      0       0      21        0.0%
BITBIGSFRhllhhh      4      0       0      18        0.0%
BITBIGSFRhlll        1      0       0      22        0.0%
BITBIGSFRll          1      0       0      25        0.0%
BIGSFR               0      0       0     200        0.0%
BITSFR               0      0       0     200        0.0%
SFR                  0      0       0     200        0.0%
STACK                0      0       0       2        0.0%
NULL                 0      0       0       0        0.0%
ABS                  0      0     116      26        0.0%
DATA                 0      0     116       3        0.0%
CODE                 0      0       0       0        0.0%


Microchip Technology PIC18 Macro Assembler V2.41 build 20230208172133 
Symbol Table                                                                                   Wed Jun 07 10:37:57 2023

             reproduz_vitoria@i_820 000E               reproduz_vitoria@i_821 0010  
             reproduz_vitoria@i_822 0012                                  l70 1F16  
                                l67 1F08                                  l99 1ECC  
                      ___awdiv@sign 0010                                 l111 1640  
                               l104 15AC                                 l120 1B84  
                               l114 167E                                 l122 1B92  
                               l123 1BA0                                 l140 1E52  
                               l108 15F6                                 l116 16EE  
                               l124 1BAE                                 l125 1BF6  
                               l150 16FA                                 l151 1738  
                               l152 1744                                 l137 1F00  
                               l161 1456                                 l153 1786  
                               l250 1D46                                 l162 1498  
                               l154 1792                                 l163 14C8  
                               l155 17D0                                 l164 150A  
                               l156 17DC                                 l165 153A  
                               l157 181A                                 l166 157C  
                               l158 181C                                 l167 159C  
                               l184 09E4                                 l249 1D36  
                               l482 1B7C                                 l469 1ACC  
                               l916 1EAA                                 l942 1C70  
                               l950 1346                                 l961 1444  
                               l938 1C1A                                 l947 12F8  
                               l981 1E18                                 l949 1300  
                               l974 1D94                                 l968 193E  
                               l993 1A08                                 l978 1E10  
                               _abs 1DDA                                 _pad 1BF8  
                      ___awmod@sign 0010                                 prod 0FF3  
                               wreg 0FE8                                l1001 1DD8  
                              l1006 1EE6                                l2001 1C06  
                              l1009 1CDC                                l2011 1C5C  
                              l2003 1C12                                ?_abs 0011  
                              l2013 1DDA                                l2005 1C26  
                              l2021 12D6                                l2101 1CFC  
                              l2015 1DF4                                l2007 1C3A  
                              l2031 131E                                l2023 12DE  
                              l2111 1D70                                l2103 1D0C  
                              l2201 1EFE                                l2009 1C3E  
                              l2041 1358                                l2033 132E  
                              l2025 12EC                                l2017 12B2  
                              l2113 1D8C                                l2105 1D16  
                              l2121 15A4                                l2211 1E2C  
                              l2203 1E1A                                l2043 135E  
                              l2051 13B8                                l2035 133A  
                              l2027 1308                                l2019 12C6  
                              l2107 1D48                                l2131 15CC  
                              l2221 1E36                                l2213 1E2E  
                              l2205 1E26                                l2117 1EAC  
                              l2061 1414                                l2053 13D2  
                              l2045 1390                                l2037 1342  
                              l2029 1318                                l2109 1D54  
                              l2141 1606                                l2133 15EE  
                              l2231 1E40                                l2223 1E38  
                              l2215 1E30                                l2207 1E28  
                              l2063 1424                                l2055 13E4  
                              l2047 1396                                l2039 134E  
                              l2071 1850                                l2311 14A0  
                              l2151 1642                                l2143 1616  
                              l2127 15AE                                l2119 15A0  
                              l2233 1E42                                l2225 1E3A  
                              l2217 1E32                                l2209 1E2A  
                              l2057 13FE                                l2049 139C  
                              l2081 18A8                                l2073 185C  
                              l2241 1C72                                l2321 14C0  
                              l2313 14B8                                l2305 1458  
                              l2153 164A                                l2145 1638  
                              l2129 15BC                                l2235 1E44  
                              l2227 1E3C                                l2219 1E34  
                              l2059 140E                                l2083 18EC  
                              l2075 1860                                l2091 1916  
                              l2067 181E                                l2243 1CAE  
                              l2331 14EC                                l2315 14BA  
                              l2307 1468                                l2163 1680  
                              l2155 1654                                l2139 15F8  
                              l2171 16B4                                l2237 1E4E  
                              l2229 1E3E                                l2077 1870  
                              l2069 1842                                l2341 1530  
                              l2333 1512                                l2317 14BC  
                              l2309 147A                                l2165 1688  
                              l2157 1676                                l2261 173C  
                              l2181 1BBC                                l2501 06AA  
                              l2239 1E50                                l2191 1EF4  
                              l2087 1904                                l2079 188C  
                              l2351 154C                                l2343 1532  
                              l2335 152A                                l2327 14CA  
                              l2319 14BE                                l2167 1692  
                              l2271 1768                                l2255 16FC  
                              l2247 16F0                                l2511 0720  
                              l2503 06B4                                l2193 1EF6  
                              l2097 1CDE                                l2353 155E  
                              l2337 152C                                l2329 14DA  
                              l2281 17A2                                l2273 178A  
                              l2257 170A                                l2249 16F2  
                              l2177 1B80                                l2601 0BDA  
                              l2521 0774                                l2505 06EA  
                              l2195 1EF8                                l2187 1EE8  
                              l2099 1CEE                                l2355 1584  
                              l2339 152E                                l2291 17DE  
                              l2283 17B2                                l2267 1746  
                              l2259 171A                                l2363 1ECE  
                              l2611 0C52                                l2531 0798  
                              l2515 0740                                l2507 0706  
                              l2197 1EFA                                l2189 1EEC  
                              l1901 1964                                l2357 1E86  
                              l2349 153C                                l2293 17EC  
                              l2285 17D4                                l2269 1756  
                              l2701 0FAA                                l2613 0C6E  
                              l2605 0C1A                                l2541 0836  
                              l2533 07A4                                l2517 074E  
                              l2525 077C                                l2509 0718  
                              l2199 1EFC                                l1903 196E  
                              l1911 1D96                                l2359 1E8E  
                              l2295 17FC                                l2279 1794  
                              l2703 0FAE                                l2631 0D6A  
                              l2615 0C92                                l2623 0D16  
                              l2607 0C1E                                l2551 08F4  
                              l2543 086E                                l2535 07CA  
                              l2519 075A                                l2527 0784  
                              l2471 0624                                l1921 1A0E  
                              l1905 198C                                l1913 1DA2  
                              l2297 1446                                l2713 0FDC  
                              l2633 0D8E                                l2641 0E12  
                              l2617 0CAC                                l2625 0D1A  
                              l2609 0C40                                l2561 09B2  
                              l2545 088A                                l2553 092E  
                              l2537 07E8                                l2529 0796  
                              l2481 064E                                l2473 062C  
                              l1931 1A3E                                l1923 1A1C  
                              l1907 19C2                                l1915 1DB4  
                              l2299 144E                                l2723 103E  
                              l2707 0FC2                                l2651 0E78  
                              l2635 0DA8                                l2643 0E16  
                              l2619 0CD6                                l2627 0D3C  
                              l2715 0FF4                                l2555 094A  
                              l2547 08A6                                l2563 09DE  
                              l2539 081E                                l2571 0A2E  
                              l2491 0672                                l2483 0656  
                              l2475 0638                                l1941 1A6C  
                              l1933 1A42                                l1925 1A24  
                              l1917 1DB8                                l2725 1042  
                              l2717 1012                                l2709 0FD6  
                              l2661 0EF2                                l2653 0EB6  
                              l2637 0DD2                                l2629 0D4E  
                              l2645 0E34                                l2581 0AAC  
                              l2573 0A40                                l2565 0A02  
                              l2557 0966                                l2549 08DC  
                              l2493 0672                                l2485 0662  
                              l2477 0644                                l1951 1AA0  
                              l1943 1A7A                                l1935 1A4A  
                              l1927 1A28                                l1919 1A0A  
                              l2719 102A                                l2671 0F1C  
                              l2663 0EFE                                l2655 0EBE  
                              l2647 0E46                                l2583 0AD6  
                              l2575 0A52                                l2591 0B44  
                              l2567 0A2A                                l2559 099C  
                              l2495 0684                                l2487 066A  
                              l2479 0644                                l1953 1AA6  
                              l1945 1A80                                l1937 1A5C  
                              l1929 1A36                                l2681 0F44  
                              l2673 0F24                                l2665 0F02  
                              l2649 0E52                                l2657 0EC2  
                              l2593 0B56                                l2585 0B12  
                              l2577 0A6E                                l2569 0A2C  
                              l2497 068E                                l2489 0672  
                              l1947 1A96                                l1939 1A64  
                              l1955 1AAC                                l1971 1AEC  
                              l1963 1ACE                                l2771 16C8  
                              l2683 0F58                                l2675 0F2C  
                              l2667 0F0C                                l2691 0F80  
                              l2659 0EE0                                l2595 0B72  
                              l2579 0A92                                l2587 0B1E  
                              l2499 06A2                                l1957 1ABC  
                              l1949 1A9E                                l1981 1B24  
                              l1973 1AFA                                l1965 1AD2  
                              l2693 0F8C                                l2677 0F30  
                              l2669 0F14                                l2597 0B96  
                              l2589 0B22                                ?_pad 001C  
                              l1959 1AC4                                l1983 1B32  
                              l1991 1B5C                                l1975 1B02  
                              l1967 1AE0                                l1895 1F04  
                              l2695 0F92                                l2687 0F5E  
                              l2599 0BB0                                l1993 1B6C  
                              l1985 1B48                                l1977 1B14  
                              l1969 1AE8                                l1897 1940  
                              l2769 1BD0                                l2697 0F9A  
                              l2689 0F76                                l1995 1B74  
                              l1987 1B50                                l1979 1B1C  
                              l1899 1952                                l2699 0FA2  
                              l1989 1B56                                l1999 1BF8  
                              STR_1 0601                                STR_2 061E  
                              STR_3 061E                                STR_4 060E  
                              STR_5 0616                                u1200 1A36  
                              u2000 0B12                                u1201 1A32  
                              u2001 0B0E                                u1210 1A5C  
                              u1130 1F16                                u2010 0B40  
                              u1211 1A58                                u1131 1F12  
                              u2011 0B3C                                u1220 1A7A  
                              u1300 1B6C                                u1140 1952  
                              u2100 0D12                                u2020 0B56  
                              u1221 1A76                                u1301 1B68  
                              u1141 194E                                u2101 0D0E  
                              u2021 0B52                                u1230 1A96  
                              u1150 1964                                u1310 1C06  
                              u2110 0D38                                u2030 0B96  
                              u1231 1A92                                u1151 1960  
                              u1311 1C02                                u2111 0D34  
                              u2031 0B92                                u1240 1ABC  
                              u1160 198C                                u1320 1C5C  
                              u1400 13D2                                u2200 0EF2  
                              u2120 0D4E                                u2040 0BDA  
                              u1241 1AB8                                u1161 1988  
                              u1321 1C58                                u1401 13CE  
                              u2201 0EEE                                u2121 0D4A  
                              u2041 0BD6                                u1250 1AE0  
                              u1330 1DF4                                u1170 19C2  
                              u1410 13E4                                u2210 0F40  
                              u2130 0D8E                                u2050 0C16  
                              u1251 1ADC                                u1331 1DF0  
                              u1171 19BE                                u1411 13E0  
                              u2211 0F3C                                u2131 0D8A  
                              u2051 0C12                                u1260 1AFA  
                              u1180 1DD8                                u1420 13FE  
                              u1340 12C2                                u1500 15EA  
                              u2220 0FBE                                u2140 0DD2  
                              u2060 0C3C                                u1261 1AF6  
                              u1181 1DD4                                u1421 13FA  
                              u1341 12BC                                u1501 15E6  
                              u2221 0FBA                                u2141 0DCE  
                              u2061 0C38                                u1190 1A1C  
                              u1270 1B14                                u1430 140E  
                              u1350 12C4                                u1510 1634  
                              u2230 1012                                u2150 0E0E  
                              u2070 0C52                                u1191 1A18  
                              u1271 1B10                                u1431 140A  
                              u1511 1630                                u2231 100E  
                              u2151 0E0A                                u2071 0C4E  
                              u1280 1B32                                u1360 12D6  
                              u1440 1842                                u1520 1672  
                              u1600 1786                                u2240 103A  
                              u2160 0E34                                u2080 0C92  
                              u1281 1B2E                                u1361 12D2  
                              u1441 183E                                u1521 166E  
                              u1601 1782                                u2241 1036  
                              u2161 0E30                                u2081 0C8E  
                              u1290 1B48                                u1370 12EC  
                              u1450 188C                                u1530 16B0  
                              u1610 17D0                                u2170 0E46  
                              u2090 0CD6                                u1291 1B44  
                              u1371 12E8                                u1451 1888  
                              u1531 16AC                                u1611 17CC  
                              u2171 0E42                                u2091 0CD2  
                              u2307 09A6                                u1380 1318  
                              u1460 18A8                                u1620 181A  
                              u2180 0EB6                                u1381 1314  
                              u1461 18A4                                u1621 1816  
                              u2181 0EB2                                u2317 09D6  
                              u1390 132E                                u1470 1CFC  
                              u1630 1498                                u2190 0EE0  
                              u1391 132A                                u1471 1CF8  
                              u1631 1494                                u2407 17E0  
                              u2327 0F68                                u2191 0EDC  
                              u1480 1D36                                u1640 150A  
                              u1481 1D32                                u1641 1506  
                              u2417 17F0                                u1545 1B8C  
                              u2337 0FE6                                u2257 06F4  
                              u1490 1D8C                                u1650 157C  
                              u1546 1B8E                                u1491 1D88  
                              u1651 1578                                u2507 145E  
                              u2427 15B4                                u2347 1702  
                              u1555 1B9A                                u2267 0828  
                              u1580 1CCE                                u1556 1B9C  
                              u1900 07E8                                u2517 1470  
                              u2437 15C4                                u2357 1712  
                              u1565 1BA8                                u2277 085E  
                              u1901 07E4                                u1590 1738  
                              u1566 1BAA                                u1910 088A  
                              u2527 14AA                                u2447 15FA  
                              u2367 174C                                u1591 1734  
                              u1575 1BB6                                u2287 08E6  
                              u1911 0886                                u1831 063E  
                              u1576 1BB8                                u1920 08A6  
                              u1585 1CC4                                u2537 14D0  
                              u2457 160A                                u2377 175E  
                              u2297 091C                                u1921 08A2  
                              u1841 065C                                u1930 094A  
                              u1850 0684                                u2547 14E2  
                              u2467 1644                                u2387 179A  
                              u1931 0946                                u1851 0680  
                              u1940 0966                                u1860 06A2  
                              u2557 151C                                u2477 164E  
                              u2397 17AA                                u1941 0962  
                              u1861 069E                                u1950 0A02  
                              u1870 0718                                u2567 1542  
                              u2487 1682                                u1951 09FE  
                              u1871 0714                                u1960 0A40  
                              u1880 073C                                u2577 1554  
                              u2497 168C                                u1961 0A3C  
                              u1881 0738                                u1970 0A52  
                              u1890 0796                                u2587 158E  
                              u1971 0A4E                                u1891 0792  
                              u1980 0A92                                u1981 0A8E  
                              u1990 0AD6                                u1991 0AD2  
                              i2l80 111E                                i2l81 12AC  
                              i2l90 122A                                i2l82 11B0  
                              i2l84 116C                                i2l85 11AA  
                              i2l77 1124                                i2l94 1278  
                              i2l95 12AA                                i2l87 1230  
                              i2l79 10E0                                i2l96 12AE  
                              i2l89 11F8                         main@estagio 00C9  
                              abs@a 0011                                _dbuf 00D6  
                              _main 0624                                _dtoa 12B2  
                              _init 1E1A                                _rand 1C72  
                              _seed 006D                                _prec 006A  
                              pad@i 0023                                pad@p 0020  
                              fsr1h 0FE2                                fsr2h 0FDA  
                              indf2 0FDF                                fsr1l 0FE1  
                              pad@w 0025                                fsr2l 0FD9  
                              btemp 0071                                prodl 0FF3  
                              start 000E                        ___param_bank 0000  
                             ??_abs 0013                               ??_pad 0022  
                             ?_main 0001                               ?_dtoa 0027  
                             ?_init 0001                               ?_rand 0017  
                   __end_of___awdiv 1ACE                     __end_of___awmod 1B7E  
                   ___awdiv@divisor 000D                     ___awdiv@counter 000F  
                      vfpfcnvrt@fmt 0036                               _TMR0H 0FD7  
                             _TMR0L 0FD6                               _SPBRG 0FAF  
                             _PORTD 0F83                               _TRISB 0F93  
                             _TRISD 0F95                               _TXREG 0FAD  
               ___lmul@multiplicand 000F                               _flags 006C  
                             _fputc 1940                               _fputs 1D96  
                             _srand 1ECE                               pad@fp 001C  
                             _width 0068                               _putch 1F02  
                             main@i 00B7                               dtoa@d 0029  
                             main@r 00B4                               dtoa@i 0031  
                             dtoa@p 002D                               dtoa@s 0033  
                             dtoa@w 002F                               tablat 0FF5  
                             ttemp5 0072                               ttemp6 0075  
                             ttemp7 0079                               status 0FD8  
                             wtemp8 0072                     __initialization 1E54  
                      __end_of_main 104E                        __end_of_dtoa 1446  
                      __end_of_init 1E54                        __end_of_rand 1CDE  
                            ??_main 0050                              ??_dtoa 002B  
                            ??_init 000B                              ??_rand 0019  
                     __activetblptr 0002                              _ADCON1 0FC1  
                            ?_fputc 000C                              ?_fputs 0015  
                  ___awdiv@dividend 000B                              ?_srand 0013  
                            ?_putch 0001                              i2l2401 1158  
                            i2l2411 117C                              i2l2403 1162  
                            i2l2421 11EE                              i2l2413 118C  
                            i2l2431 120C                              i2l2415 11BE  
                            i2l2433 123E                              i2l2417 11D6  
                            i2l2409 116E                              i2l2435 1256  
                            i2l2427 11FA                              i2l2419 11E4  
                            i2l2371 107A                              i2l2445 127A  
                            i2l2437 1264                              i2l2429 1202  
                            i2l2381 10BE                              i2l2373 107C  
                            i2l2365 1050                              i2l2447 1282  
                            i2l2439 126E                              i2l2391 10E2  
                            i2l2383 10CC                              i2l2375 108A  
                            i2l2367 105E                              i2l2449 128C  
                            i2l2393 10F0                              i2l2385 10D6  
                            i2l2377 1098                              i2l2369 1066  
                            i2l2395 1100                              i2l2379 10A6  
                            i2l2397 1132                              i2l2399 114A  
               reproduz_som_led@pos 000D                              _SPBRGH 0FB0  
                      vfprintf@cfmt 0048                              ___lmul 1CDE  
                         ??___awdiv 000F                           ??___awmod 000F  
                  __end_of_initUART 1F02                              _setLED 1B7E  
                            _millis 1EAC                              clear_0 1E5A  
                            clear_1 1E66                              clear_2 1E72  
                  ___awdiv@quotient 0011                     ___awmod@divisor 000D  
                       setLED@value 000B                              isa$std 0001  
                   ___awmod@counter 000F                              _printf 1E86  
                            pad@buf 001E                              dtoa@fp 0027  
                            fputc@c 000C                              fputs@c 0019  
                            fputs@i 001A                              fputs@s 0015  
                      __mediumconst 0000                              tblptrh 0FF7  
                            tblptrl 0FF6                              tblptru 0FF8  
                     interruption@i 0003                              srand@s 0013  
                  __end_of_vfprintf 1D96                          __accesstop 0080  
           __end_of__initialization 1E78                       ___rparam_used 0001  
             main@sequencia_usuario 0098                      __pcstackCOMRAM 0001  
                     ?_interruption 0001                       __end_of_fputc 1A0A  
                     __end_of_fputs 1DDA                       __end_of_srand 1EE8  
                     __end_of_putch 1F18                    _reproduz_derrota 1446  
                  _reproduz_som_led 159E                             ??_fputc 0010  
                           ??_fputs 0019                             ??_srand 0015  
                           ??_putch 000B                    _reproduz_vitoria 16F0  
                        __pbssBANK0 00CB                          __pbssBANK1 0100  
        main@sequencia_facil_perdeu 00B2                      ??_interruption 0001  
                      _game_iniciou 00D5                             ?___lmul 000B  
                           ?_setLED 000B                      ___lmul@product 0013  
                           ?_millis 000B                             ?_printf 004A  
                         ?_initUART 0001                             __Hparam 0000  
                           __Lparam 0000                             ___awdiv 1A0A  
                           ___awmod 1ACE                           ?_vfprintf 0042  
                      __psmallconst 0600                             __pcinit 1E54  
                           __ramtop 0600                             __ptext0 0624  
                           __ptext1 1ECE                             __ptext2 1B7E  
                           __ptext3 16F0                             __ptext4 159E  
                           __ptext5 1446                             __ptext6 1C72  
                           __ptext7 1CDE                             __ptext8 1E86  
                           __ptext9 1D48                           _T0CONbits 0FD5  
                  ___awmod@dividend 000B                      __pintcode_body 104E  
              end_of_initialization 1E78                          ??_initUART 000B  
                           fputc@fp 000E                       __Lmediumconst 0000  
                           int_func 104E                             fputs@fp 0017  
                 __end_of_vfpfcnvrt 1940                           _RCSTAbits 0FAB  
                           postdec2 0FDD                             postinc0 0FEE  
                           postinc1 0FE6                             postinc2 0FDE  
                  vfpfcnvrt@convarg 003C                          ??_vfprintf 0048  
                 reproduz_derrota@i 000D                           _PORTBbits 0F81  
                         _PORTCbits 0F82                           _PORTDbits 0F83  
                         _TRISCbits 0F94          main@possui_sequencia_facil 00B0  
              __end_of_interruption 12B2                           _TXSTAbits 0FAC  
          __end_of_reproduz_derrota 159E            __end_of_reproduz_som_led 16F0  
                    __end_of___lmul 1D48            __end_of_reproduz_vitoria 181E  
                 reproduz_som_led@i 000E                         vfpfcnvrt@ap 0038  
                       vfpfcnvrt@cp 0040                         vfpfcnvrt@fp 0034  
                       _BAUDCONbits 0FB8                      __end_of_setLED 1BF8  
                    __end_of_millis 1ECE                      __end_of_printf 1EAC  
               start_initialization 1E54                   reproduz_vitoria@i 000C  
                       __end_of_abs 1E1A                         __end_of_pad 1C72  
                       vfprintf@fmt 0044                            ??___lmul 0013  
                          ??_setLED 000C                            ??_millis 0013  
                          ??_printf 004E                         __pbssCOMRAM 0058  
                     __pcstackBANK0 0080               reproduz_derrota@i_825 000F  
             reproduz_derrota@i_826 0011                           _dtoa$1373 002B  
                         __pintcode 0008                            ?___awdiv 000B  
                          ?___awmod 000B       main@sequencia_facil_finalizou 00B9  
                       __smallconst 0600               reproduz_som_led@i_736 0010  
             reproduz_som_led@i_737 0012               reproduz_som_led@i_738 0014  
                          _MILI_CNT 0060                            i2u170_40 10CC  
                          i2u170_41 10C8                            i2u171_40 111E  
                          i2u171_41 111A                            i2u180_40 12AA  
                          i2u172_40 1132                            i2u180_41 12A6  
                          i2u172_41 112E                            i2u260_47 10E8  
                          i2u173_40 1158                            i2u173_41 1154  
                          i2u261_47 10F8                            i2u174_40 11AA  
                          i2u166_40 105E                            i2u174_41 11A6  
                          i2u166_41 105A                            i2u270_47 1286  
                          i2u262_47 113C                            i2u175_40 11BE  
                          i2u167_40 108A                            i2u175_41 11BA  
                          i2u167_41 1086                            i2u263_47 1170  
                          i2u176_40 11E4                            i2u168_40 1098  
                          i2u176_41 11E0                            i2u168_41 1094  
                          i2u264_47 1180                            i2u177_40 122A  
                          i2u169_40 10A6                            i2u177_41 1226  
                          i2u169_41 10A2                            i2u265_47 11C8  
                          i2u178_40 123E                            i2u178_41 123A  
                          i2u266_47 11FC                            i2u179_40 1264  
                          i2u179_41 1260                            i2u267_47 1206  
                          i2u259_47 10B0                            i2u268_47 1248  
                          i2u269_47 127C                            _RCONbits 0FD0  
                         main@F2931 0118                           main@F2936 0100  
                 interruption@i_730 0007                   interruption@i_731 0009  
                 interruption@i_729 0005                        _interruption 0008  
                         _vfpfcnvrt 181E                           main@i_852 00BF  
                         main@i_860 00BB                           main@i_853 00C1  
                         main@i_854 00C3                           main@i_862 00BC  
                         main@i_855 00C5                           main@i_863 00B6  
                         main@i_856 00BD                           main@i_849 00C7  
                         main@array 0080  generate_random_sequence_easy@F2917 0058  
                 ___lmul@multiplier 000B                         _INTCON2bits 0FF1  
                       _INTCON3bits 0FF0                   ?_reproduz_derrota 0001  
                          __Hrparam 0000                          vfprintf@ap 0046  
                          __Lrparam 0000                          vfprintf@fp 0042  
                ??_reproduz_derrota 000B                           setLED@pos 000E  
                 ?_reproduz_som_led 0001                          ?_vfpfcnvrt 0034  
                 ?_reproduz_vitoria 0001                  ??_reproduz_som_led 000B  
         _esperando_sequencia_facil 00CB                  ??_reproduz_vitoria 000B  
                          __ptext10 181E                            __ptext11 12B2  
                          __ptext20 1EE8                            __ptext12 1BF8  
                          __ptext21 1E1A                            __ptext13 1D96  
                          __ptext14 1940                            __ptext15 1F02  
                          __ptext16 1DDA                            __ptext17 1ACE  
                          __ptext18 1A0A                            __ptext19 1EAC  
                          _initUART 1EE8                            isa$xinst 0000  
                          int$flags 0071                            _vfprintf 1D48  
                         printf@fmt 004A                           putch@byte 000B  
                        _INTCONbits 0FF2                            intlevel2 0000  
                          printf@ap 004E                         ??_vfpfcnvrt 003A  
                       _pressedBTN1 00D3                         _pressedBTN2 00D1  
                       _pressedBTN3 00CF                         _pressedBTN4 00CD  
